Archive member included because of file (symbol)

c:/devkitpro/devkitppc/bin/../lib/gcc/powerpc-eabi/4.8.2/../../../../powerpc-eabi/lib\libsysbase.a(iosupport.o)
                              sd_fat_devoptab.o (devoptab_list)
c:/devkitpro/devkitppc/bin/../lib/gcc/powerpc-eabi/4.8.2/../../../../powerpc-eabi/lib\libsysbase.a(mkdir.o)
                              fs_utils.o (mkdir)
c:/devkitpro/devkitppc/bin/../lib/gcc/powerpc-eabi/4.8.2/../../../../powerpc-eabi/lib\libc.a(lib_a-atoi.o)
                              cfw_config.o (atoi)
c:/devkitpro/devkitppc/bin/../lib/gcc/powerpc-eabi/4.8.2/../../../../powerpc-eabi/lib\libc.a(lib_a-errno.o)
                              sd_fat_devoptab.o (__errno)
c:/devkitpro/devkitppc/bin/../lib/gcc/powerpc-eabi/4.8.2/../../../../powerpc-eabi/lib\libc.a(lib_a-fclose.o)
                              cfw_config.o (fclose)
c:/devkitpro/devkitppc/bin/../lib/gcc/powerpc-eabi/4.8.2/../../../../powerpc-eabi/lib\libc.a(lib_a-fflush.o)
                              c:/devkitpro/devkitppc/bin/../lib/gcc/powerpc-eabi/4.8.2/../../../../powerpc-eabi/lib\libc.a(lib_a-fclose.o) (_fflush_r)
c:/devkitpro/devkitppc/bin/../lib/gcc/powerpc-eabi/4.8.2/../../../../powerpc-eabi/lib\libc.a(lib_a-fgets.o)
                              cfw_config.o (fgets)
c:/devkitpro/devkitppc/bin/../lib/gcc/powerpc-eabi/4.8.2/../../../../powerpc-eabi/lib\libc.a(lib_a-findfp.o)
                              c:/devkitpro/devkitppc/bin/../lib/gcc/powerpc-eabi/4.8.2/../../../../powerpc-eabi/lib\libc.a(lib_a-fclose.o) (__sfp_lock_acquire)
c:/devkitpro/devkitppc/bin/../lib/gcc/powerpc-eabi/4.8.2/../../../../powerpc-eabi/lib\libc.a(lib_a-fopen.o)
                              cfw_config.o (fopen)
c:/devkitpro/devkitppc/bin/../lib/gcc/powerpc-eabi/4.8.2/../../../../powerpc-eabi/lib\libc.a(lib_a-fprintf.o)
                              cfw_config.o (fprintf)
c:/devkitpro/devkitppc/bin/../lib/gcc/powerpc-eabi/4.8.2/../../../../powerpc-eabi/lib\libc.a(lib_a-fread.o)
                              main.o (fread)
c:/devkitpro/devkitppc/bin/../lib/gcc/powerpc-eabi/4.8.2/../../../../powerpc-eabi/lib\libc.a(lib_a-fseek.o)
                              c:/devkitpro/devkitppc/bin/../lib/gcc/powerpc-eabi/4.8.2/../../../../powerpc-eabi/lib\libc.a(lib_a-fopen.o) (_fseek_r)
c:/devkitpro/devkitppc/bin/../lib/gcc/powerpc-eabi/4.8.2/../../../../powerpc-eabi/lib\libc.a(lib_a-fseeko.o)
                              c:/devkitpro/devkitppc/bin/../lib/gcc/powerpc-eabi/4.8.2/../../../../powerpc-eabi/lib\libc.a(lib_a-fseek.o) (_fseeko_r)
c:/devkitpro/devkitppc/bin/../lib/gcc/powerpc-eabi/4.8.2/../../../../powerpc-eabi/lib\libc.a(lib_a-ftell.o)
                              main.o (ftell)
c:/devkitpro/devkitppc/bin/../lib/gcc/powerpc-eabi/4.8.2/../../../../powerpc-eabi/lib\libc.a(lib_a-ftello.o)
                              c:/devkitpro/devkitppc/bin/../lib/gcc/powerpc-eabi/4.8.2/../../../../powerpc-eabi/lib\libc.a(lib_a-ftell.o) (_ftello_r)
c:/devkitpro/devkitppc/bin/../lib/gcc/powerpc-eabi/4.8.2/../../../../powerpc-eabi/lib\libc.a(lib_a-fwalk.o)
                              c:/devkitpro/devkitppc/bin/../lib/gcc/powerpc-eabi/4.8.2/../../../../powerpc-eabi/lib\libc.a(lib_a-findfp.o) (_fwalk)
c:/devkitpro/devkitppc/bin/../lib/gcc/powerpc-eabi/4.8.2/../../../../powerpc-eabi/lib\libc.a(lib_a-fwrite.o)
                              cfw_config.o (fwrite)
c:/devkitpro/devkitppc/bin/../lib/gcc/powerpc-eabi/4.8.2/../../../../powerpc-eabi/lib\libc.a(lib_a-impure.o)
                              c:/devkitpro/devkitppc/bin/../lib/gcc/powerpc-eabi/4.8.2/../../../../powerpc-eabi/lib\libc.a(lib_a-fflush.o) (_global_impure_ptr)
c:/devkitpro/devkitppc/bin/../lib/gcc/powerpc-eabi/4.8.2/../../../../powerpc-eabi/lib\libc.a(lib_a-makebuf.o)
                              c:/devkitpro/devkitppc/bin/../lib/gcc/powerpc-eabi/4.8.2/../../../../powerpc-eabi/lib\libc.a(lib_a-fseeko.o) (__smakebuf_r)
c:/devkitpro/devkitppc/bin/../lib/gcc/powerpc-eabi/4.8.2/../../../../powerpc-eabi/lib\libc.a(lib_a-memchr.o)
                              c:/devkitpro/devkitppc/bin/../lib/gcc/powerpc-eabi/4.8.2/../../../../powerpc-eabi/lib\libc.a(lib_a-fgets.o) (memchr)
c:/devkitpro/devkitppc/bin/../lib/gcc/powerpc-eabi/4.8.2/../../../../powerpc-eabi/lib\libc.a(lib_a-memcmp.o)
                              menu.o (memcmp)
c:/devkitpro/devkitppc/bin/../lib/gcc/powerpc-eabi/4.8.2/../../../../powerpc-eabi/lib\libc.a(lib_a-memcpy.o)
                              main.o (memcpy)
c:/devkitpro/devkitppc/bin/../lib/gcc/powerpc-eabi/4.8.2/../../../../powerpc-eabi/lib\libc.a(lib_a-memset.o)
                              fs_utils.o (memset)
c:/devkitpro/devkitppc/bin/../lib/gcc/powerpc-eabi/4.8.2/../../../../powerpc-eabi/lib\libc.a(lib_a-refill.o)
                              c:/devkitpro/devkitppc/bin/../lib/gcc/powerpc-eabi/4.8.2/../../../../powerpc-eabi/lib\libc.a(lib_a-fgets.o) (__srefill_r)
c:/devkitpro/devkitppc/bin/../lib/gcc/powerpc-eabi/4.8.2/../../../../powerpc-eabi/lib\libc.a(lib_a-snprintf.o)
                              fs_utils.o (snprintf)
c:/devkitpro/devkitppc/bin/../lib/gcc/powerpc-eabi/4.8.2/../../../../powerpc-eabi/lib\libc.a(lib_a-sprintf.o)
                              exception_handler.o (sprintf)
c:/devkitpro/devkitppc/bin/../lib/gcc/powerpc-eabi/4.8.2/../../../../powerpc-eabi/lib\libc.a(lib_a-stdio.o)
                              c:/devkitpro/devkitppc/bin/../lib/gcc/powerpc-eabi/4.8.2/../../../../powerpc-eabi/lib\libc.a(lib_a-findfp.o) (__sread)
c:/devkitpro/devkitppc/bin/../lib/gcc/powerpc-eabi/4.8.2/../../../../powerpc-eabi/lib\libc.a(lib_a-strchr.o)
                              sd_fat_devoptab.o (strchr)
c:/devkitpro/devkitppc/bin/../lib/gcc/powerpc-eabi/4.8.2/../../../../powerpc-eabi/lib\libc.a(lib_a-strcmp.o)
                              cfw_config.o (strcmp)
c:/devkitpro/devkitppc/bin/../lib/gcc/powerpc-eabi/4.8.2/../../../../powerpc-eabi/lib\libc.a(lib_a-strcpy.o)
                              fs_utils.o (strcpy)
c:/devkitpro/devkitppc/bin/../lib/gcc/powerpc-eabi/4.8.2/../../../../powerpc-eabi/lib\libc.a(lib_a-strlen.o)
                              menu.o (strlen)
c:/devkitpro/devkitppc/bin/../lib/gcc/powerpc-eabi/4.8.2/../../../../powerpc-eabi/lib\libc.a(lib_a-strncmp.o)
                              c:/devkitpro/devkitppc/bin/../lib/gcc/powerpc-eabi/4.8.2/../../../../powerpc-eabi/lib\libsysbase.a(iosupport.o) (strncmp)
c:/devkitpro/devkitppc/bin/../lib/gcc/powerpc-eabi/4.8.2/../../../../powerpc-eabi/lib\libc.a(lib_a-strncpy.o)
                              sd_fat_devoptab.o (strncpy)
c:/devkitpro/devkitppc/bin/../lib/gcc/powerpc-eabi/4.8.2/../../../../powerpc-eabi/lib\libc.a(lib_a-strrchr.o)
                              fs_utils.o (strrchr)
c:/devkitpro/devkitppc/bin/../lib/gcc/powerpc-eabi/4.8.2/../../../../powerpc-eabi/lib\libc.a(lib_a-strtok.o)
                              sd_fat_devoptab.o (strtok)
c:/devkitpro/devkitppc/bin/../lib/gcc/powerpc-eabi/4.8.2/../../../../powerpc-eabi/lib\libc.a(lib_a-strtok_r.o)
                              c:/devkitpro/devkitppc/bin/../lib/gcc/powerpc-eabi/4.8.2/../../../../powerpc-eabi/lib\libc.a(lib_a-strtok.o) (__strtok_r)
c:/devkitpro/devkitppc/bin/../lib/gcc/powerpc-eabi/4.8.2/../../../../powerpc-eabi/lib\libc.a(lib_a-strtol.o)
                              c:/devkitpro/devkitppc/bin/../lib/gcc/powerpc-eabi/4.8.2/../../../../powerpc-eabi/lib\libc.a(lib_a-atoi.o) (_strtol_r)
c:/devkitpro/devkitppc/bin/../lib/gcc/powerpc-eabi/4.8.2/../../../../powerpc-eabi/lib\libc.a(lib_a-svfprintf.o)
                              c:/devkitpro/devkitppc/bin/../lib/gcc/powerpc-eabi/4.8.2/../../../../powerpc-eabi/lib\libc.a(lib_a-snprintf.o) (_svfprintf_r)
c:/devkitpro/devkitppc/bin/../lib/gcc/powerpc-eabi/4.8.2/../../../../powerpc-eabi/lib\libc.a(lib_a-sysclose.o)
                              fs_utils.o (close)
c:/devkitpro/devkitppc/bin/../lib/gcc/powerpc-eabi/4.8.2/../../../../powerpc-eabi/lib\libc.a(lib_a-syslseek.o)
                              fs_utils.o (lseek)
c:/devkitpro/devkitppc/bin/../lib/gcc/powerpc-eabi/4.8.2/../../../../powerpc-eabi/lib\libc.a(lib_a-sysopen.o)
                              fs_utils.o (open)
c:/devkitpro/devkitppc/bin/../lib/gcc/powerpc-eabi/4.8.2/../../../../powerpc-eabi/lib\libc.a(lib_a-sysread.o)
                              fs_utils.o (read)
c:/devkitpro/devkitppc/bin/../lib/gcc/powerpc-eabi/4.8.2/../../../../powerpc-eabi/lib\libc.a(lib_a-sysstat.o)
                              fs_utils.o (stat)
c:/devkitpro/devkitppc/bin/../lib/gcc/powerpc-eabi/4.8.2/../../../../powerpc-eabi/lib\libc.a(lib_a-vasprintf.o)
                              menu.o (vasprintf)
c:/devkitpro/devkitppc/bin/../lib/gcc/powerpc-eabi/4.8.2/../../../../powerpc-eabi/lib\libc.a(lib_a-vfprintf.o)
                              c:/devkitpro/devkitppc/bin/../lib/gcc/powerpc-eabi/4.8.2/../../../../powerpc-eabi/lib\libc.a(lib_a-fprintf.o) (_vfprintf_r)
c:/devkitpro/devkitppc/bin/../lib/gcc/powerpc-eabi/4.8.2/../../../../powerpc-eabi/lib\libc.a(lib_a-wcrtomb.o)
                              c:/devkitpro/devkitppc/bin/../lib/gcc/powerpc-eabi/4.8.2/../../../../powerpc-eabi/lib\libc.a(lib_a-svfprintf.o) (_wcrtomb_r)
c:/devkitpro/devkitppc/bin/../lib/gcc/powerpc-eabi/4.8.2/../../../../powerpc-eabi/lib\libc.a(lib_a-wcsrtombs.o)
                              c:/devkitpro/devkitppc/bin/../lib/gcc/powerpc-eabi/4.8.2/../../../../powerpc-eabi/lib\libc.a(lib_a-svfprintf.o) (_wcsrtombs_r)
c:/devkitpro/devkitppc/bin/../lib/gcc/powerpc-eabi/4.8.2/../../../../powerpc-eabi/lib\libc.a(lib_a-wctomb_r.o)
                              c:/devkitpro/devkitppc/bin/../lib/gcc/powerpc-eabi/4.8.2/../../../../powerpc-eabi/lib\libc.a(lib_a-wcrtomb.o) (__wctomb)
c:/devkitpro/devkitppc/bin/../lib/gcc/powerpc-eabi/4.8.2/../../../../powerpc-eabi/lib\libc.a(lib_a-wsetup.o)
                              c:/devkitpro/devkitppc/bin/../lib/gcc/powerpc-eabi/4.8.2/../../../../powerpc-eabi/lib\libc.a(lib_a-vfprintf.o) (__swsetup_r)
c:/devkitpro/devkitppc/bin/../lib/gcc/powerpc-eabi/4.8.2/../../../../powerpc-eabi/lib\libc.a(lib_a-ctype_.o)
                              c:/devkitpro/devkitppc/bin/../lib/gcc/powerpc-eabi/4.8.2/../../../../powerpc-eabi/lib\libc.a(lib_a-strtol.o) (__ctype_ptr__)
c:/devkitpro/devkitppc/bin/../lib/gcc/powerpc-eabi/4.8.2/../../../../powerpc-eabi/lib\libc.a(lib_a-dtoa.o)
                              c:/devkitpro/devkitppc/bin/../lib/gcc/powerpc-eabi/4.8.2/../../../../powerpc-eabi/lib\libc.a(lib_a-svfprintf.o) (_dtoa_r)
c:/devkitpro/devkitppc/bin/../lib/gcc/powerpc-eabi/4.8.2/../../../../powerpc-eabi/lib\libc.a(lib_a-flags.o)
                              c:/devkitpro/devkitppc/bin/../lib/gcc/powerpc-eabi/4.8.2/../../../../powerpc-eabi/lib\libc.a(lib_a-fopen.o) (__sflags)
c:/devkitpro/devkitppc/bin/../lib/gcc/powerpc-eabi/4.8.2/../../../../powerpc-eabi/lib\libc.a(lib_a-fvwrite.o)
                              c:/devkitpro/devkitppc/bin/../lib/gcc/powerpc-eabi/4.8.2/../../../../powerpc-eabi/lib\libc.a(lib_a-fwrite.o) (__sfvwrite_r)
c:/devkitpro/devkitppc/bin/../lib/gcc/powerpc-eabi/4.8.2/../../../../powerpc-eabi/lib\libc.a(lib_a-locale.o)
                              c:/devkitpro/devkitppc/bin/../lib/gcc/powerpc-eabi/4.8.2/../../../../powerpc-eabi/lib\libc.a(lib_a-svfprintf.o) (__locale_charset)
c:/devkitpro/devkitppc/bin/../lib/gcc/powerpc-eabi/4.8.2/../../../../powerpc-eabi/lib\libc.a(lib_a-mbtowc_r.o)
                              c:/devkitpro/devkitppc/bin/../lib/gcc/powerpc-eabi/4.8.2/../../../../powerpc-eabi/lib\libc.a(lib_a-locale.o) (__utf8_mbtowc)
c:/devkitpro/devkitppc/bin/../lib/gcc/powerpc-eabi/4.8.2/../../../../powerpc-eabi/lib\libc.a(lib_a-memmove.o)
                              c:/devkitpro/devkitppc/bin/../lib/gcc/powerpc-eabi/4.8.2/../../../../powerpc-eabi/lib\libc.a(lib_a-fvwrite.o) (memmove)
c:/devkitpro/devkitppc/bin/../lib/gcc/powerpc-eabi/4.8.2/../../../../powerpc-eabi/lib\libc.a(lib_a-mprec.o)
                              c:/devkitpro/devkitppc/bin/../lib/gcc/powerpc-eabi/4.8.2/../../../../powerpc-eabi/lib\libc.a(lib_a-dtoa.o) (_Balloc)
c:/devkitpro/devkitppc/bin/../lib/gcc/powerpc-eabi/4.8.2/../../../../powerpc-eabi/lib\libc.a(lib_a-s_fpclassify.o)
                              c:/devkitpro/devkitppc/bin/../lib/gcc/powerpc-eabi/4.8.2/../../../../powerpc-eabi/lib\libc.a(lib_a-svfprintf.o) (__fpclassifyd)
c:/devkitpro/devkitppc/bin/../lib/gcc/powerpc-eabi/4.8.2/../../../../powerpc-eabi/lib\libc.a(lib_a-strcasecmp.o)
                              c:/devkitpro/devkitppc/bin/../lib/gcc/powerpc-eabi/4.8.2/../../../../powerpc-eabi/lib\libc.a(lib_a-locale.o) (strcasecmp)
c:/devkitpro/devkitppc/bin/../lib/gcc/powerpc-eabi/4.8.2/../../../../powerpc-eabi/lib\libc.a(lib_a-strcat.o)
                              c:/devkitpro/devkitppc/bin/../lib/gcc/powerpc-eabi/4.8.2/../../../../powerpc-eabi/lib\libc.a(lib_a-locale.o) (strcat)
c:/devkitpro/devkitppc/bin/../lib/gcc/powerpc-eabi/4.8.2/../../../../powerpc-eabi/lib\libc.a(lib_a-strlcpy.o)
                              c:/devkitpro/devkitppc/bin/../lib/gcc/powerpc-eabi/4.8.2/../../../../powerpc-eabi/lib\libc.a(lib_a-locale.o) (strlcpy)
c:/devkitpro/devkitppc/bin/../lib/gcc/powerpc-eabi/4.8.2/../../../../powerpc-eabi/lib\libc.a(lib_a-strncasecmp.o)
                              c:/devkitpro/devkitppc/bin/../lib/gcc/powerpc-eabi/4.8.2/../../../../powerpc-eabi/lib\libc.a(lib_a-locale.o) (strncasecmp)
c:/devkitpro/devkitppc/bin/../lib/gcc/powerpc-eabi/4.8.2/../../../../powerpc-eabi/lib\libc.a(lib_a-svfiprintf.o)
                              c:/devkitpro/devkitppc/bin/../lib/gcc/powerpc-eabi/4.8.2/../../../../powerpc-eabi/lib\libc.a(lib_a-svfprintf.o) (__ssprint_r)
c:/devkitpro/devkitppc/bin/../lib/gcc/powerpc-eabi/4.8.2/../../../../powerpc-eabi/lib\libc.a(lib_a-vfiprintf.o)
                              c:/devkitpro/devkitppc/bin/../lib/gcc/powerpc-eabi/4.8.2/../../../../powerpc-eabi/lib\libc.a(lib_a-vfprintf.o) (__sprint_r)
c:/devkitpro/devkitppc/bin/../lib/gcc/powerpc-eabi/4.8.2/../../../../powerpc-eabi/lib\libc.a(lib_a-wcsnrtombs.o)
                              c:/devkitpro/devkitppc/bin/../lib/gcc/powerpc-eabi/4.8.2/../../../../powerpc-eabi/lib\libc.a(lib_a-wcsrtombs.o) (_wcsnrtombs_r)
c:/devkitpro/devkitppc/bin/../lib/gcc/powerpc-eabi/4.8.2/../../../../powerpc-eabi/lib\libc.a(lib_a-fputwc.o)
                              c:/devkitpro/devkitppc/bin/../lib/gcc/powerpc-eabi/4.8.2/../../../../powerpc-eabi/lib\libc.a(lib_a-vfiprintf.o) (_fputwc_r)
c:/devkitpro/devkitppc/bin/../lib/gcc/powerpc-eabi/4.8.2/../../../../powerpc-eabi/lib\libc.a(lib_a-getenv_r.o)
                              c:/devkitpro/devkitppc/bin/../lib/gcc/powerpc-eabi/4.8.2/../../../../powerpc-eabi/lib\libc.a(lib_a-locale.o) (_getenv_r)
c:/devkitpro/devkitppc/bin/../lib/gcc/powerpc-eabi/4.8.2/../../../../powerpc-eabi/lib\libc.a(lib_a-wbuf.o)
                              c:/devkitpro/devkitppc/bin/../lib/gcc/powerpc-eabi/4.8.2/../../../../powerpc-eabi/lib\libc.a(lib_a-fputwc.o) (__swbuf_r)
c:/devkitpro/devkitppc/bin/../lib/gcc/powerpc-eabi/4.8.2/../../../../powerpc-eabi/lib\libc.a(lib_a-environ.o)
                              c:/devkitpro/devkitppc/bin/../lib/gcc/powerpc-eabi/4.8.2/../../../../powerpc-eabi/lib\libc.a(lib_a-getenv_r.o) (environ)
c:/devkitpro/devkitppc/bin/../lib/gcc/powerpc-eabi/4.8.2/../../../../powerpc-eabi/lib\libc.a(lib_a-envlock.o)
                              c:/devkitpro/devkitppc/bin/../lib/gcc/powerpc-eabi/4.8.2/../../../../powerpc-eabi/lib\libc.a(lib_a-getenv_r.o) (__env_lock)
c:/devkitpro/devkitppc/bin/../lib/gcc/powerpc-eabi/4.8.2/../../../../powerpc-eabi/lib\libsysbase.a(close.o)
                              c:/devkitpro/devkitppc/bin/../lib/gcc/powerpc-eabi/4.8.2/../../../../powerpc-eabi/lib\libc.a(lib_a-stdio.o) (_close_r)
c:/devkitpro/devkitppc/bin/../lib/gcc/powerpc-eabi/4.8.2/../../../../powerpc-eabi/lib\libsysbase.a(fstat.o)
                              c:/devkitpro/devkitppc/bin/../lib/gcc/powerpc-eabi/4.8.2/../../../../powerpc-eabi/lib\libc.a(lib_a-fseeko.o) (_fstat_r)
c:/devkitpro/devkitppc/bin/../lib/gcc/powerpc-eabi/4.8.2/../../../../powerpc-eabi/lib\libsysbase.a(isatty.o)
                              c:/devkitpro/devkitppc/bin/../lib/gcc/powerpc-eabi/4.8.2/../../../../powerpc-eabi/lib\libc.a(lib_a-makebuf.o) (_isatty_r)
c:/devkitpro/devkitppc/bin/../lib/gcc/powerpc-eabi/4.8.2/../../../../powerpc-eabi/lib\libsysbase.a(lseek.o)
                              c:/devkitpro/devkitppc/bin/../lib/gcc/powerpc-eabi/4.8.2/../../../../powerpc-eabi/lib\libc.a(lib_a-stdio.o) (_lseek_r)
c:/devkitpro/devkitppc/bin/../lib/gcc/powerpc-eabi/4.8.2/../../../../powerpc-eabi/lib\libsysbase.a(open.o)
                              c:/devkitpro/devkitppc/bin/../lib/gcc/powerpc-eabi/4.8.2/../../../../powerpc-eabi/lib\libc.a(lib_a-fopen.o) (_open_r)
c:/devkitpro/devkitppc/bin/../lib/gcc/powerpc-eabi/4.8.2/../../../../powerpc-eabi/lib\libsysbase.a(read.o)
                              c:/devkitpro/devkitppc/bin/../lib/gcc/powerpc-eabi/4.8.2/../../../../powerpc-eabi/lib\libc.a(lib_a-stdio.o) (_read_r)
c:/devkitpro/devkitppc/bin/../lib/gcc/powerpc-eabi/4.8.2/../../../../powerpc-eabi/lib\libsysbase.a(stat.o)
                              c:/devkitpro/devkitppc/bin/../lib/gcc/powerpc-eabi/4.8.2/../../../../powerpc-eabi/lib\libc.a(lib_a-sysstat.o) (_stat_r)
c:/devkitpro/devkitppc/bin/../lib/gcc/powerpc-eabi/4.8.2/../../../../powerpc-eabi/lib\libsysbase.a(write.o)
                              c:/devkitpro/devkitppc/bin/../lib/gcc/powerpc-eabi/4.8.2/../../../../powerpc-eabi/lib\libc.a(lib_a-stdio.o) (_write_r)
c:/devkitpro/devkitppc/bin/../lib/gcc/powerpc-eabi/4.8.2/../../../../powerpc-eabi/lib\libsysbase.a(flock.o)
                              c:/devkitpro/devkitppc/bin/../lib/gcc/powerpc-eabi/4.8.2/../../../../powerpc-eabi/lib\libc.a(lib_a-fclose.o) (__flockfile)
c:/devkitpro/devkitppc/bin/../lib/gcc/powerpc-eabi/4.8.2/../../../../powerpc-eabi/lib\libsysbase.a(syscall_support.o)
                              c:/devkitpro/devkitppc/bin/../lib/gcc/powerpc-eabi/4.8.2/../../../../powerpc-eabi/lib\libc.a(lib_a-findfp.o) (__libc_lock_init)
c:/devkitpro/devkitppc/bin/../lib/gcc/powerpc-eabi/4.8.2/../../../../powerpc-eabi/lib\libsysbase.a(handle_manager.o)
                              c:/devkitpro/devkitppc/bin/../lib/gcc/powerpc-eabi/4.8.2/../../../../powerpc-eabi/lib\libsysbase.a(close.o) (__release_handle)
c:/devkitpro/devkitppc/bin/../lib/gcc/powerpc-eabi/4.8.2\libgcc.a(_udivdi3.o)
                              c:/devkitpro/devkitppc/bin/../lib/gcc/powerpc-eabi/4.8.2/../../../../powerpc-eabi/lib\libc.a(lib_a-svfprintf.o) (__udivdi3)
c:/devkitpro/devkitppc/bin/../lib/gcc/powerpc-eabi/4.8.2\libgcc.a(_umoddi3.o)
                              c:/devkitpro/devkitppc/bin/../lib/gcc/powerpc-eabi/4.8.2/../../../../powerpc-eabi/lib\libc.a(lib_a-svfprintf.o) (__umoddi3)

Discarded input sections

 .text          0x00000000        0x0 cfw_config.o
 .data          0x00000000        0x0 cfw_config.o
 .bss           0x00000000        0x0 cfw_config.o
 .comment       0x00000000       0x23 cfw_config.o
 .text          0x00000000        0x0 entry.o
 .data          0x00000000        0x0 entry.o
 .bss           0x00000000        0x0 entry.o
 .comment       0x00000000       0x23 entry.o
 .text          0x00000000        0x0 main.o
 .data          0x00000000        0x0 main.o
 .bss           0x00000000        0x0 main.o
 .comment       0x00000000       0x23 main.o
 .text          0x00000000        0x0 menu.o
 .data          0x00000000        0x0 menu.o
 .bss           0x00000000        0x0 menu.o
 .comment       0x00000000       0x23 menu.o
 .text          0x00000000        0x0 fs_functions.o
 .bss           0x00000000        0x0 fs_functions.o
 .comment       0x00000000       0x23 fs_functions.o
 .text          0x00000000        0x0 gx2_functions.o
 .data          0x00000000      0x108 gx2_functions.o
 .bss           0x00000000        0x0 gx2_functions.o
 .text.InitAcquireGX2
                0x00000000       0x20 gx2_functions.o
 .text.InitGX2FunctionPointers
                0x00000000     0x16f0 gx2_functions.o
 .rodata.str1.4
                0x00000000      0xe7d gx2_functions.o
 .comment       0x00000000       0x23 gx2_functions.o
 .text          0x00000000        0x0 os_functions.o
 .bss           0x00000000        0x0 os_functions.o
 .text.InitAcquireOS
                0x00000000       0x34 os_functions.o
 .comment       0x00000000       0x23 os_functions.o
 .text          0x00000000        0x0 socket_functions.o
 .data          0x00000000       0x48 socket_functions.o
 .bss           0x00000000        0x0 socket_functions.o
 .text.InitAcquireSocket
                0x00000000       0x20 socket_functions.o
 .text.InitSocketFunctionPointers
                0x00000000      0x688 socket_functions.o
 .sbss.hostIpAddress
                0x00000000        0x4 socket_functions.o
 .rodata.str1.4
                0x00000000      0x29e socket_functions.o
 .comment       0x00000000       0x23 socket_functions.o
 .text          0x00000000        0x0 sys_functions.o
 .bss           0x00000000        0x0 sys_functions.o
 .text.InitAcquireSys
                0x00000000       0x20 sys_functions.o
 .comment       0x00000000       0x23 sys_functions.o
 .text          0x00000000        0x0 vpad_functions.o
 .bss           0x00000000        0x0 vpad_functions.o
 .text.InitAcquireVPad
                0x00000000       0x64 vpad_functions.o
 .comment       0x00000000       0x23 vpad_functions.o
 .text          0x00000000        0x0 fs_utils.o
 .data          0x00000000        0x0 fs_utils.o
 .bss           0x00000000        0x0 fs_utils.o
 .text.LoadFileToMem
                0x00000000      0x16c fs_utils.o
 .text.CheckFile
                0x00000000      0x10c fs_utils.o
 .comment       0x00000000       0x23 fs_utils.o
 .text          0x00000000        0x0 sd_fat_devoptab.o
 .data          0x00000000        0x0 sd_fat_devoptab.o
 .bss           0x00000000        0x0 sd_fat_devoptab.o
 .comment       0x00000000       0x23 sd_fat_devoptab.o
 .text          0x00000000        0x0 exception_handler.o
 .data          0x00000000        0x0 exception_handler.o
 .bss           0x00000000        0x0 exception_handler.o
 .text.exception_cb
                0x00000000      0x434 exception_handler.o
 .text.program_exception_cb
                0x00000000        0x8 exception_handler.o
 .text.isi_exception_cb
                0x00000000        0x8 exception_handler.o
 .text.dsi_exception_cb
                0x00000000        0x8 exception_handler.o
 .text.setup_os_exceptions
                0x00000000       0x6c exception_handler.o
 .rodata.exception_names
                0x00000000        0xc exception_handler.o
 .rodata.exception_print_formats
                0x00000000      0x32a exception_handler.o
 .rodata.str1.4
                0x00000000       0x10 exception_handler.o
 .comment       0x00000000       0x23 exception_handler.o
 .text          0x00000000        0x0 memory.o
 .data          0x00000000        0x0 memory.o
 .bss           0x00000000        0x0 memory.o
 .text.memoryInitialize
                0x00000000      0x120 memory.o
 .text.memoryRelease
                0x00000000       0xcc memory.o
 .text.__wrap_calloc
                0x00000000       0x60 memory.o
 .text.__wrap_malloc_usable_size
                0x00000000        0xc memory.o
 .text.__wrap_realloc
                0x00000000       0xa8 memory.o
 .text.__wrap__memalign_r
                0x00000000       0x24 memory.o
 .text.__wrap__malloc_usable_size_r
                0x00000000        0xc memory.o
 .text.MEM2_alloc
                0x00000000       0x20 memory.o
 .text.MEM2_free
                0x00000000       0x1c memory.o
 .text.MEM1_alloc
                0x00000000       0x2c memory.o
 .text.MEM1_free
                0x00000000       0x1c memory.o
 .text.MEMBucket_alloc
                0x00000000       0x2c memory.o
 .text.MEMBucket_free
                0x00000000       0x1c memory.o
 .data.mem1_heap
                0x00000000        0x4 memory.o
 .data.bucket_heap
                0x00000000        0x4 memory.o
 .comment       0x00000000       0x23 memory.o
 .text          0x00000000        0x0 logger.o
 .data          0x00000000        0x0 logger.o
 .bss           0x00000000        0x0 logger.o
 .text.log_init
                0x00000000       0xec logger.o
 .text.log_deinit
                0x00000000       0x4c logger.o
 .text.log_print
                0x00000000      0x10c logger.o
 .text.log_printf
                0x00000000      0x1b8 logger.o
 .bss.log_lock  0x00000000        0x4 logger.o
 .data.log_socket
                0x00000000        0x4 logger.o
 .comment       0x00000000       0x23 logger.o
 .gnu.attributes
                0x00000000       0x10 logger.o
 .text          0x00000000        0x0 launch_image.tga.o
 .data          0x00000000        0x0 launch_image.tga.o
 .bss           0x00000000        0x0 launch_image.tga.o
 .bss           0x00000000        0x0 c:/devkitpro/devkitppc/bin/../lib/gcc/powerpc-eabi/4.8.2/../../../../powerpc-eabi/lib\libsysbase.a(iosupport.o)
 .comment       0x00000000       0x23 c:/devkitpro/devkitppc/bin/../lib/gcc/powerpc-eabi/4.8.2/../../../../powerpc-eabi/lib\libsysbase.a(iosupport.o)
 .data          0x00000000        0x0 c:/devkitpro/devkitppc/bin/../lib/gcc/powerpc-eabi/4.8.2/../../../../powerpc-eabi/lib\libsysbase.a(mkdir.o)
 .bss           0x00000000        0x0 c:/devkitpro/devkitppc/bin/../lib/gcc/powerpc-eabi/4.8.2/../../../../powerpc-eabi/lib\libsysbase.a(mkdir.o)
 .comment       0x00000000       0x23 c:/devkitpro/devkitppc/bin/../lib/gcc/powerpc-eabi/4.8.2/../../../../powerpc-eabi/lib\libsysbase.a(mkdir.o)
 .text          0x00000000        0x0 c:/devkitpro/devkitppc/bin/../lib/gcc/powerpc-eabi/4.8.2/../../../../powerpc-eabi/lib\libc.a(lib_a-atoi.o)
 .data          0x00000000        0x0 c:/devkitpro/devkitppc/bin/../lib/gcc/powerpc-eabi/4.8.2/../../../../powerpc-eabi/lib\libc.a(lib_a-atoi.o)
 .bss           0x00000000        0x0 c:/devkitpro/devkitppc/bin/../lib/gcc/powerpc-eabi/4.8.2/../../../../powerpc-eabi/lib\libc.a(lib_a-atoi.o)
 .text._atoi_r  0x00000000        0xc c:/devkitpro/devkitppc/bin/../lib/gcc/powerpc-eabi/4.8.2/../../../../powerpc-eabi/lib\libc.a(lib_a-atoi.o)
 .comment       0x00000000       0x23 c:/devkitpro/devkitppc/bin/../lib/gcc/powerpc-eabi/4.8.2/../../../../powerpc-eabi/lib\libc.a(lib_a-atoi.o)
 .text          0x00000000        0x0 c:/devkitpro/devkitppc/bin/../lib/gcc/powerpc-eabi/4.8.2/../../../../powerpc-eabi/lib\libc.a(lib_a-errno.o)
 .data          0x00000000        0x0 c:/devkitpro/devkitppc/bin/../lib/gcc/powerpc-eabi/4.8.2/../../../../powerpc-eabi/lib\libc.a(lib_a-errno.o)
 .bss           0x00000000        0x0 c:/devkitpro/devkitppc/bin/../lib/gcc/powerpc-eabi/4.8.2/../../../../powerpc-eabi/lib\libc.a(lib_a-errno.o)
 .comment       0x00000000       0x23 c:/devkitpro/devkitppc/bin/../lib/gcc/powerpc-eabi/4.8.2/../../../../powerpc-eabi/lib\libc.a(lib_a-errno.o)
 .text          0x00000000        0x0 c:/devkitpro/devkitppc/bin/../lib/gcc/powerpc-eabi/4.8.2/../../../../powerpc-eabi/lib\libc.a(lib_a-fclose.o)
 .data          0x00000000        0x0 c:/devkitpro/devkitppc/bin/../lib/gcc/powerpc-eabi/4.8.2/../../../../powerpc-eabi/lib\libc.a(lib_a-fclose.o)
 .bss           0x00000000        0x0 c:/devkitpro/devkitppc/bin/../lib/gcc/powerpc-eabi/4.8.2/../../../../powerpc-eabi/lib\libc.a(lib_a-fclose.o)
 .comment       0x00000000       0x23 c:/devkitpro/devkitppc/bin/../lib/gcc/powerpc-eabi/4.8.2/../../../../powerpc-eabi/lib\libc.a(lib_a-fclose.o)
 .text          0x00000000        0x0 c:/devkitpro/devkitppc/bin/../lib/gcc/powerpc-eabi/4.8.2/../../../../powerpc-eabi/lib\libc.a(lib_a-fflush.o)
 .data          0x00000000        0x0 c:/devkitpro/devkitppc/bin/../lib/gcc/powerpc-eabi/4.8.2/../../../../powerpc-eabi/lib\libc.a(lib_a-fflush.o)
 .bss           0x00000000        0x0 c:/devkitpro/devkitppc/bin/../lib/gcc/powerpc-eabi/4.8.2/../../../../powerpc-eabi/lib\libc.a(lib_a-fflush.o)
 .comment       0x00000000       0x23 c:/devkitpro/devkitppc/bin/../lib/gcc/powerpc-eabi/4.8.2/../../../../powerpc-eabi/lib\libc.a(lib_a-fflush.o)
 .text          0x00000000        0x0 c:/devkitpro/devkitppc/bin/../lib/gcc/powerpc-eabi/4.8.2/../../../../powerpc-eabi/lib\libc.a(lib_a-fgets.o)
 .data          0x00000000        0x0 c:/devkitpro/devkitppc/bin/../lib/gcc/powerpc-eabi/4.8.2/../../../../powerpc-eabi/lib\libc.a(lib_a-fgets.o)
 .bss           0x00000000        0x0 c:/devkitpro/devkitppc/bin/../lib/gcc/powerpc-eabi/4.8.2/../../../../powerpc-eabi/lib\libc.a(lib_a-fgets.o)
 .comment       0x00000000       0x23 c:/devkitpro/devkitppc/bin/../lib/gcc/powerpc-eabi/4.8.2/../../../../powerpc-eabi/lib\libc.a(lib_a-fgets.o)
 .text          0x00000000        0x0 c:/devkitpro/devkitppc/bin/../lib/gcc/powerpc-eabi/4.8.2/../../../../powerpc-eabi/lib\libc.a(lib_a-findfp.o)
 .data          0x00000000        0x0 c:/devkitpro/devkitppc/bin/../lib/gcc/powerpc-eabi/4.8.2/../../../../powerpc-eabi/lib\libc.a(lib_a-findfp.o)
 .bss           0x00000000        0x0 c:/devkitpro/devkitppc/bin/../lib/gcc/powerpc-eabi/4.8.2/../../../../powerpc-eabi/lib\libc.a(lib_a-findfp.o)
 .text.__fp_lock
                0x00000000       0x38 c:/devkitpro/devkitppc/bin/../lib/gcc/powerpc-eabi/4.8.2/../../../../powerpc-eabi/lib\libc.a(lib_a-findfp.o)
 .text.__fp_unlock
                0x00000000       0x38 c:/devkitpro/devkitppc/bin/../lib/gcc/powerpc-eabi/4.8.2/../../../../powerpc-eabi/lib\libc.a(lib_a-findfp.o)
 .text._cleanup
                0x00000000       0x14 c:/devkitpro/devkitppc/bin/../lib/gcc/powerpc-eabi/4.8.2/../../../../powerpc-eabi/lib\libc.a(lib_a-findfp.o)
 .text.__sinit_lock_release
                0x00000000        0xc c:/devkitpro/devkitppc/bin/../lib/gcc/powerpc-eabi/4.8.2/../../../../powerpc-eabi/lib\libc.a(lib_a-findfp.o)
 .text.__fp_lock_all
                0x00000000       0x30 c:/devkitpro/devkitppc/bin/../lib/gcc/powerpc-eabi/4.8.2/../../../../powerpc-eabi/lib\libc.a(lib_a-findfp.o)
 .text.__fp_unlock_all
                0x00000000       0x38 c:/devkitpro/devkitppc/bin/../lib/gcc/powerpc-eabi/4.8.2/../../../../powerpc-eabi/lib\libc.a(lib_a-findfp.o)
 .comment       0x00000000       0x23 c:/devkitpro/devkitppc/bin/../lib/gcc/powerpc-eabi/4.8.2/../../../../powerpc-eabi/lib\libc.a(lib_a-findfp.o)
 .text          0x00000000        0x0 c:/devkitpro/devkitppc/bin/../lib/gcc/powerpc-eabi/4.8.2/../../../../powerpc-eabi/lib\libc.a(lib_a-fopen.o)
 .data          0x00000000        0x0 c:/devkitpro/devkitppc/bin/../lib/gcc/powerpc-eabi/4.8.2/../../../../powerpc-eabi/lib\libc.a(lib_a-fopen.o)
 .bss           0x00000000        0x0 c:/devkitpro/devkitppc/bin/../lib/gcc/powerpc-eabi/4.8.2/../../../../powerpc-eabi/lib\libc.a(lib_a-fopen.o)
 .comment       0x00000000       0x23 c:/devkitpro/devkitppc/bin/../lib/gcc/powerpc-eabi/4.8.2/../../../../powerpc-eabi/lib\libc.a(lib_a-fopen.o)
 .text          0x00000000        0x0 c:/devkitpro/devkitppc/bin/../lib/gcc/powerpc-eabi/4.8.2/../../../../powerpc-eabi/lib\libc.a(lib_a-fprintf.o)
 .data          0x00000000        0x0 c:/devkitpro/devkitppc/bin/../lib/gcc/powerpc-eabi/4.8.2/../../../../powerpc-eabi/lib\libc.a(lib_a-fprintf.o)
 .bss           0x00000000        0x0 c:/devkitpro/devkitppc/bin/../lib/gcc/powerpc-eabi/4.8.2/../../../../powerpc-eabi/lib\libc.a(lib_a-fprintf.o)
 .text._fprintf_r
                0x00000000       0x7c c:/devkitpro/devkitppc/bin/../lib/gcc/powerpc-eabi/4.8.2/../../../../powerpc-eabi/lib\libc.a(lib_a-fprintf.o)
 .comment       0x00000000       0x23 c:/devkitpro/devkitppc/bin/../lib/gcc/powerpc-eabi/4.8.2/../../../../powerpc-eabi/lib\libc.a(lib_a-fprintf.o)
 .gnu.attributes
                0x00000000       0x10 c:/devkitpro/devkitppc/bin/../lib/gcc/powerpc-eabi/4.8.2/../../../../powerpc-eabi/lib\libc.a(lib_a-fprintf.o)
 .text          0x00000000        0x0 c:/devkitpro/devkitppc/bin/../lib/gcc/powerpc-eabi/4.8.2/../../../../powerpc-eabi/lib\libc.a(lib_a-fread.o)
 .data          0x00000000        0x0 c:/devkitpro/devkitppc/bin/../lib/gcc/powerpc-eabi/4.8.2/../../../../powerpc-eabi/lib\libc.a(lib_a-fread.o)
 .bss           0x00000000        0x0 c:/devkitpro/devkitppc/bin/../lib/gcc/powerpc-eabi/4.8.2/../../../../powerpc-eabi/lib\libc.a(lib_a-fread.o)
 .comment       0x00000000       0x23 c:/devkitpro/devkitppc/bin/../lib/gcc/powerpc-eabi/4.8.2/../../../../powerpc-eabi/lib\libc.a(lib_a-fread.o)
 .text          0x00000000        0x0 c:/devkitpro/devkitppc/bin/../lib/gcc/powerpc-eabi/4.8.2/../../../../powerpc-eabi/lib\libc.a(lib_a-fseek.o)
 .data          0x00000000        0x0 c:/devkitpro/devkitppc/bin/../lib/gcc/powerpc-eabi/4.8.2/../../../../powerpc-eabi/lib\libc.a(lib_a-fseek.o)
 .bss           0x00000000        0x0 c:/devkitpro/devkitppc/bin/../lib/gcc/powerpc-eabi/4.8.2/../../../../powerpc-eabi/lib\libc.a(lib_a-fseek.o)
 .comment       0x00000000       0x23 c:/devkitpro/devkitppc/bin/../lib/gcc/powerpc-eabi/4.8.2/../../../../powerpc-eabi/lib\libc.a(lib_a-fseek.o)
 .text          0x00000000        0x0 c:/devkitpro/devkitppc/bin/../lib/gcc/powerpc-eabi/4.8.2/../../../../powerpc-eabi/lib\libc.a(lib_a-fseeko.o)
 .data          0x00000000        0x0 c:/devkitpro/devkitppc/bin/../lib/gcc/powerpc-eabi/4.8.2/../../../../powerpc-eabi/lib\libc.a(lib_a-fseeko.o)
 .bss           0x00000000        0x0 c:/devkitpro/devkitppc/bin/../lib/gcc/powerpc-eabi/4.8.2/../../../../powerpc-eabi/lib\libc.a(lib_a-fseeko.o)
 .text.fseeko   0x00000000       0x10 c:/devkitpro/devkitppc/bin/../lib/gcc/powerpc-eabi/4.8.2/../../../../powerpc-eabi/lib\libc.a(lib_a-fseeko.o)
 .comment       0x00000000       0x23 c:/devkitpro/devkitppc/bin/../lib/gcc/powerpc-eabi/4.8.2/../../../../powerpc-eabi/lib\libc.a(lib_a-fseeko.o)
 .text          0x00000000        0x0 c:/devkitpro/devkitppc/bin/../lib/gcc/powerpc-eabi/4.8.2/../../../../powerpc-eabi/lib\libc.a(lib_a-ftell.o)
 .data          0x00000000        0x0 c:/devkitpro/devkitppc/bin/../lib/gcc/powerpc-eabi/4.8.2/../../../../powerpc-eabi/lib\libc.a(lib_a-ftell.o)
 .bss           0x00000000        0x0 c:/devkitpro/devkitppc/bin/../lib/gcc/powerpc-eabi/4.8.2/../../../../powerpc-eabi/lib\libc.a(lib_a-ftell.o)
 .text._ftell_r
                0x00000000       0x48 c:/devkitpro/devkitppc/bin/../lib/gcc/powerpc-eabi/4.8.2/../../../../powerpc-eabi/lib\libc.a(lib_a-ftell.o)
 .comment       0x00000000       0x23 c:/devkitpro/devkitppc/bin/../lib/gcc/powerpc-eabi/4.8.2/../../../../powerpc-eabi/lib\libc.a(lib_a-ftell.o)
 .text          0x00000000        0x0 c:/devkitpro/devkitppc/bin/../lib/gcc/powerpc-eabi/4.8.2/../../../../powerpc-eabi/lib\libc.a(lib_a-ftello.o)
 .data          0x00000000        0x0 c:/devkitpro/devkitppc/bin/../lib/gcc/powerpc-eabi/4.8.2/../../../../powerpc-eabi/lib\libc.a(lib_a-ftello.o)
 .bss           0x00000000        0x0 c:/devkitpro/devkitppc/bin/../lib/gcc/powerpc-eabi/4.8.2/../../../../powerpc-eabi/lib\libc.a(lib_a-ftello.o)
 .text.ftello   0x00000000       0x10 c:/devkitpro/devkitppc/bin/../lib/gcc/powerpc-eabi/4.8.2/../../../../powerpc-eabi/lib\libc.a(lib_a-ftello.o)
 .comment       0x00000000       0x23 c:/devkitpro/devkitppc/bin/../lib/gcc/powerpc-eabi/4.8.2/../../../../powerpc-eabi/lib\libc.a(lib_a-ftello.o)
 .text          0x00000000        0x0 c:/devkitpro/devkitppc/bin/../lib/gcc/powerpc-eabi/4.8.2/../../../../powerpc-eabi/lib\libc.a(lib_a-fwalk.o)
 .data          0x00000000        0x0 c:/devkitpro/devkitppc/bin/../lib/gcc/powerpc-eabi/4.8.2/../../../../powerpc-eabi/lib\libc.a(lib_a-fwalk.o)
 .bss           0x00000000        0x0 c:/devkitpro/devkitppc/bin/../lib/gcc/powerpc-eabi/4.8.2/../../../../powerpc-eabi/lib\libc.a(lib_a-fwalk.o)
 .comment       0x00000000       0x23 c:/devkitpro/devkitppc/bin/../lib/gcc/powerpc-eabi/4.8.2/../../../../powerpc-eabi/lib\libc.a(lib_a-fwalk.o)
 .text          0x00000000        0x0 c:/devkitpro/devkitppc/bin/../lib/gcc/powerpc-eabi/4.8.2/../../../../powerpc-eabi/lib\libc.a(lib_a-fwrite.o)
 .data          0x00000000        0x0 c:/devkitpro/devkitppc/bin/../lib/gcc/powerpc-eabi/4.8.2/../../../../powerpc-eabi/lib\libc.a(lib_a-fwrite.o)
 .bss           0x00000000        0x0 c:/devkitpro/devkitppc/bin/../lib/gcc/powerpc-eabi/4.8.2/../../../../powerpc-eabi/lib\libc.a(lib_a-fwrite.o)
 .comment       0x00000000       0x23 c:/devkitpro/devkitppc/bin/../lib/gcc/powerpc-eabi/4.8.2/../../../../powerpc-eabi/lib\libc.a(lib_a-fwrite.o)
 .text          0x00000000        0x0 c:/devkitpro/devkitppc/bin/../lib/gcc/powerpc-eabi/4.8.2/../../../../powerpc-eabi/lib\libc.a(lib_a-impure.o)
 .data          0x00000000        0x0 c:/devkitpro/devkitppc/bin/../lib/gcc/powerpc-eabi/4.8.2/../../../../powerpc-eabi/lib\libc.a(lib_a-impure.o)
 .bss           0x00000000        0x0 c:/devkitpro/devkitppc/bin/../lib/gcc/powerpc-eabi/4.8.2/../../../../powerpc-eabi/lib\libc.a(lib_a-impure.o)
 .comment       0x00000000       0x23 c:/devkitpro/devkitppc/bin/../lib/gcc/powerpc-eabi/4.8.2/../../../../powerpc-eabi/lib\libc.a(lib_a-impure.o)
 .text          0x00000000        0x0 c:/devkitpro/devkitppc/bin/../lib/gcc/powerpc-eabi/4.8.2/../../../../powerpc-eabi/lib\libc.a(lib_a-makebuf.o)
 .data          0x00000000        0x0 c:/devkitpro/devkitppc/bin/../lib/gcc/powerpc-eabi/4.8.2/../../../../powerpc-eabi/lib\libc.a(lib_a-makebuf.o)
 .bss           0x00000000        0x0 c:/devkitpro/devkitppc/bin/../lib/gcc/powerpc-eabi/4.8.2/../../../../powerpc-eabi/lib\libc.a(lib_a-makebuf.o)
 .comment       0x00000000       0x23 c:/devkitpro/devkitppc/bin/../lib/gcc/powerpc-eabi/4.8.2/../../../../powerpc-eabi/lib\libc.a(lib_a-makebuf.o)
 .text          0x00000000        0x0 c:/devkitpro/devkitppc/bin/../lib/gcc/powerpc-eabi/4.8.2/../../../../powerpc-eabi/lib\libc.a(lib_a-memchr.o)
 .data          0x00000000        0x0 c:/devkitpro/devkitppc/bin/../lib/gcc/powerpc-eabi/4.8.2/../../../../powerpc-eabi/lib\libc.a(lib_a-memchr.o)
 .bss           0x00000000        0x0 c:/devkitpro/devkitppc/bin/../lib/gcc/powerpc-eabi/4.8.2/../../../../powerpc-eabi/lib\libc.a(lib_a-memchr.o)
 .comment       0x00000000       0x23 c:/devkitpro/devkitppc/bin/../lib/gcc/powerpc-eabi/4.8.2/../../../../powerpc-eabi/lib\libc.a(lib_a-memchr.o)
 .text          0x00000000        0x0 c:/devkitpro/devkitppc/bin/../lib/gcc/powerpc-eabi/4.8.2/../../../../powerpc-eabi/lib\libc.a(lib_a-memcmp.o)
 .data          0x00000000        0x0 c:/devkitpro/devkitppc/bin/../lib/gcc/powerpc-eabi/4.8.2/../../../../powerpc-eabi/lib\libc.a(lib_a-memcmp.o)
 .bss           0x00000000        0x0 c:/devkitpro/devkitppc/bin/../lib/gcc/powerpc-eabi/4.8.2/../../../../powerpc-eabi/lib\libc.a(lib_a-memcmp.o)
 .comment       0x00000000       0x23 c:/devkitpro/devkitppc/bin/../lib/gcc/powerpc-eabi/4.8.2/../../../../powerpc-eabi/lib\libc.a(lib_a-memcmp.o)
 .text          0x00000000        0x0 c:/devkitpro/devkitppc/bin/../lib/gcc/powerpc-eabi/4.8.2/../../../../powerpc-eabi/lib\libc.a(lib_a-memcpy.o)
 .data          0x00000000        0x0 c:/devkitpro/devkitppc/bin/../lib/gcc/powerpc-eabi/4.8.2/../../../../powerpc-eabi/lib\libc.a(lib_a-memcpy.o)
 .bss           0x00000000        0x0 c:/devkitpro/devkitppc/bin/../lib/gcc/powerpc-eabi/4.8.2/../../../../powerpc-eabi/lib\libc.a(lib_a-memcpy.o)
 .comment       0x00000000       0x23 c:/devkitpro/devkitppc/bin/../lib/gcc/powerpc-eabi/4.8.2/../../../../powerpc-eabi/lib\libc.a(lib_a-memcpy.o)
 .text          0x00000000        0x0 c:/devkitpro/devkitppc/bin/../lib/gcc/powerpc-eabi/4.8.2/../../../../powerpc-eabi/lib\libc.a(lib_a-memset.o)
 .data          0x00000000        0x0 c:/devkitpro/devkitppc/bin/../lib/gcc/powerpc-eabi/4.8.2/../../../../powerpc-eabi/lib\libc.a(lib_a-memset.o)
 .bss           0x00000000        0x0 c:/devkitpro/devkitppc/bin/../lib/gcc/powerpc-eabi/4.8.2/../../../../powerpc-eabi/lib\libc.a(lib_a-memset.o)
 .comment       0x00000000       0x23 c:/devkitpro/devkitppc/bin/../lib/gcc/powerpc-eabi/4.8.2/../../../../powerpc-eabi/lib\libc.a(lib_a-memset.o)
 .text          0x00000000        0x0 c:/devkitpro/devkitppc/bin/../lib/gcc/powerpc-eabi/4.8.2/../../../../powerpc-eabi/lib\libc.a(lib_a-refill.o)
 .data          0x00000000        0x0 c:/devkitpro/devkitppc/bin/../lib/gcc/powerpc-eabi/4.8.2/../../../../powerpc-eabi/lib\libc.a(lib_a-refill.o)
 .bss           0x00000000        0x0 c:/devkitpro/devkitppc/bin/../lib/gcc/powerpc-eabi/4.8.2/../../../../powerpc-eabi/lib\libc.a(lib_a-refill.o)
 .comment       0x00000000       0x23 c:/devkitpro/devkitppc/bin/../lib/gcc/powerpc-eabi/4.8.2/../../../../powerpc-eabi/lib\libc.a(lib_a-refill.o)
 .text          0x00000000        0x0 c:/devkitpro/devkitppc/bin/../lib/gcc/powerpc-eabi/4.8.2/../../../../powerpc-eabi/lib\libc.a(lib_a-snprintf.o)
 .data          0x00000000        0x0 c:/devkitpro/devkitppc/bin/../lib/gcc/powerpc-eabi/4.8.2/../../../../powerpc-eabi/lib\libc.a(lib_a-snprintf.o)
 .bss           0x00000000        0x0 c:/devkitpro/devkitppc/bin/../lib/gcc/powerpc-eabi/4.8.2/../../../../powerpc-eabi/lib\libc.a(lib_a-snprintf.o)
 .text._snprintf_r
                0x00000000      0x10c c:/devkitpro/devkitppc/bin/../lib/gcc/powerpc-eabi/4.8.2/../../../../powerpc-eabi/lib\libc.a(lib_a-snprintf.o)
 .comment       0x00000000       0x23 c:/devkitpro/devkitppc/bin/../lib/gcc/powerpc-eabi/4.8.2/../../../../powerpc-eabi/lib\libc.a(lib_a-snprintf.o)
 .gnu.attributes
                0x00000000       0x10 c:/devkitpro/devkitppc/bin/../lib/gcc/powerpc-eabi/4.8.2/../../../../powerpc-eabi/lib\libc.a(lib_a-snprintf.o)
 .text          0x00000000        0x0 c:/devkitpro/devkitppc/bin/../lib/gcc/powerpc-eabi/4.8.2/../../../../powerpc-eabi/lib\libc.a(lib_a-sprintf.o)
 .data          0x00000000        0x0 c:/devkitpro/devkitppc/bin/../lib/gcc/powerpc-eabi/4.8.2/../../../../powerpc-eabi/lib\libc.a(lib_a-sprintf.o)
 .bss           0x00000000        0x0 c:/devkitpro/devkitppc/bin/../lib/gcc/powerpc-eabi/4.8.2/../../../../powerpc-eabi/lib\libc.a(lib_a-sprintf.o)
 .text._sprintf_r
                0x00000000       0xbc c:/devkitpro/devkitppc/bin/../lib/gcc/powerpc-eabi/4.8.2/../../../../powerpc-eabi/lib\libc.a(lib_a-sprintf.o)
 .text.sprintf  0x00000000       0xcc c:/devkitpro/devkitppc/bin/../lib/gcc/powerpc-eabi/4.8.2/../../../../powerpc-eabi/lib\libc.a(lib_a-sprintf.o)
 .comment       0x00000000       0x23 c:/devkitpro/devkitppc/bin/../lib/gcc/powerpc-eabi/4.8.2/../../../../powerpc-eabi/lib\libc.a(lib_a-sprintf.o)
 .gnu.attributes
                0x00000000       0x10 c:/devkitpro/devkitppc/bin/../lib/gcc/powerpc-eabi/4.8.2/../../../../powerpc-eabi/lib\libc.a(lib_a-sprintf.o)
 .text          0x00000000        0x0 c:/devkitpro/devkitppc/bin/../lib/gcc/powerpc-eabi/4.8.2/../../../../powerpc-eabi/lib\libc.a(lib_a-stdio.o)
 .data          0x00000000        0x0 c:/devkitpro/devkitppc/bin/../lib/gcc/powerpc-eabi/4.8.2/../../../../powerpc-eabi/lib\libc.a(lib_a-stdio.o)
 .bss           0x00000000        0x0 c:/devkitpro/devkitppc/bin/../lib/gcc/powerpc-eabi/4.8.2/../../../../powerpc-eabi/lib\libc.a(lib_a-stdio.o)
 .text.__seofread
                0x00000000        0x8 c:/devkitpro/devkitppc/bin/../lib/gcc/powerpc-eabi/4.8.2/../../../../powerpc-eabi/lib\libc.a(lib_a-stdio.o)
 .comment       0x00000000       0x23 c:/devkitpro/devkitppc/bin/../lib/gcc/powerpc-eabi/4.8.2/../../../../powerpc-eabi/lib\libc.a(lib_a-stdio.o)
 .text          0x00000000        0x0 c:/devkitpro/devkitppc/bin/../lib/gcc/powerpc-eabi/4.8.2/../../../../powerpc-eabi/lib\libc.a(lib_a-strchr.o)
 .data          0x00000000        0x0 c:/devkitpro/devkitppc/bin/../lib/gcc/powerpc-eabi/4.8.2/../../../../powerpc-eabi/lib\libc.a(lib_a-strchr.o)
 .bss           0x00000000        0x0 c:/devkitpro/devkitppc/bin/../lib/gcc/powerpc-eabi/4.8.2/../../../../powerpc-eabi/lib\libc.a(lib_a-strchr.o)
 .comment       0x00000000       0x23 c:/devkitpro/devkitppc/bin/../lib/gcc/powerpc-eabi/4.8.2/../../../../powerpc-eabi/lib\libc.a(lib_a-strchr.o)
 .text          0x00000000        0x0 c:/devkitpro/devkitppc/bin/../lib/gcc/powerpc-eabi/4.8.2/../../../../powerpc-eabi/lib\libc.a(lib_a-strcmp.o)
 .data          0x00000000        0x0 c:/devkitpro/devkitppc/bin/../lib/gcc/powerpc-eabi/4.8.2/../../../../powerpc-eabi/lib\libc.a(lib_a-strcmp.o)
 .bss           0x00000000        0x0 c:/devkitpro/devkitppc/bin/../lib/gcc/powerpc-eabi/4.8.2/../../../../powerpc-eabi/lib\libc.a(lib_a-strcmp.o)
 .comment       0x00000000       0x23 c:/devkitpro/devkitppc/bin/../lib/gcc/powerpc-eabi/4.8.2/../../../../powerpc-eabi/lib\libc.a(lib_a-strcmp.o)
 .text          0x00000000        0x0 c:/devkitpro/devkitppc/bin/../lib/gcc/powerpc-eabi/4.8.2/../../../../powerpc-eabi/lib\libc.a(lib_a-strcpy.o)
 .data          0x00000000        0x0 c:/devkitpro/devkitppc/bin/../lib/gcc/powerpc-eabi/4.8.2/../../../../powerpc-eabi/lib\libc.a(lib_a-strcpy.o)
 .bss           0x00000000        0x0 c:/devkitpro/devkitppc/bin/../lib/gcc/powerpc-eabi/4.8.2/../../../../powerpc-eabi/lib\libc.a(lib_a-strcpy.o)
 .comment       0x00000000       0x23 c:/devkitpro/devkitppc/bin/../lib/gcc/powerpc-eabi/4.8.2/../../../../powerpc-eabi/lib\libc.a(lib_a-strcpy.o)
 .text          0x00000000        0x0 c:/devkitpro/devkitppc/bin/../lib/gcc/powerpc-eabi/4.8.2/../../../../powerpc-eabi/lib\libc.a(lib_a-strlen.o)
 .data          0x00000000        0x0 c:/devkitpro/devkitppc/bin/../lib/gcc/powerpc-eabi/4.8.2/../../../../powerpc-eabi/lib\libc.a(lib_a-strlen.o)
 .bss           0x00000000        0x0 c:/devkitpro/devkitppc/bin/../lib/gcc/powerpc-eabi/4.8.2/../../../../powerpc-eabi/lib\libc.a(lib_a-strlen.o)
 .comment       0x00000000       0x23 c:/devkitpro/devkitppc/bin/../lib/gcc/powerpc-eabi/4.8.2/../../../../powerpc-eabi/lib\libc.a(lib_a-strlen.o)
 .text          0x00000000        0x0 c:/devkitpro/devkitppc/bin/../lib/gcc/powerpc-eabi/4.8.2/../../../../powerpc-eabi/lib\libc.a(lib_a-strncmp.o)
 .data          0x00000000        0x0 c:/devkitpro/devkitppc/bin/../lib/gcc/powerpc-eabi/4.8.2/../../../../powerpc-eabi/lib\libc.a(lib_a-strncmp.o)
 .bss           0x00000000        0x0 c:/devkitpro/devkitppc/bin/../lib/gcc/powerpc-eabi/4.8.2/../../../../powerpc-eabi/lib\libc.a(lib_a-strncmp.o)
 .comment       0x00000000       0x23 c:/devkitpro/devkitppc/bin/../lib/gcc/powerpc-eabi/4.8.2/../../../../powerpc-eabi/lib\libc.a(lib_a-strncmp.o)
 .text          0x00000000        0x0 c:/devkitpro/devkitppc/bin/../lib/gcc/powerpc-eabi/4.8.2/../../../../powerpc-eabi/lib\libc.a(lib_a-strncpy.o)
 .data          0x00000000        0x0 c:/devkitpro/devkitppc/bin/../lib/gcc/powerpc-eabi/4.8.2/../../../../powerpc-eabi/lib\libc.a(lib_a-strncpy.o)
 .bss           0x00000000        0x0 c:/devkitpro/devkitppc/bin/../lib/gcc/powerpc-eabi/4.8.2/../../../../powerpc-eabi/lib\libc.a(lib_a-strncpy.o)
 .comment       0x00000000       0x23 c:/devkitpro/devkitppc/bin/../lib/gcc/powerpc-eabi/4.8.2/../../../../powerpc-eabi/lib\libc.a(lib_a-strncpy.o)
 .text          0x00000000        0x0 c:/devkitpro/devkitppc/bin/../lib/gcc/powerpc-eabi/4.8.2/../../../../powerpc-eabi/lib\libc.a(lib_a-strrchr.o)
 .data          0x00000000        0x0 c:/devkitpro/devkitppc/bin/../lib/gcc/powerpc-eabi/4.8.2/../../../../powerpc-eabi/lib\libc.a(lib_a-strrchr.o)
 .bss           0x00000000        0x0 c:/devkitpro/devkitppc/bin/../lib/gcc/powerpc-eabi/4.8.2/../../../../powerpc-eabi/lib\libc.a(lib_a-strrchr.o)
 .comment       0x00000000       0x23 c:/devkitpro/devkitppc/bin/../lib/gcc/powerpc-eabi/4.8.2/../../../../powerpc-eabi/lib\libc.a(lib_a-strrchr.o)
 .text          0x00000000        0x0 c:/devkitpro/devkitppc/bin/../lib/gcc/powerpc-eabi/4.8.2/../../../../powerpc-eabi/lib\libc.a(lib_a-strtok.o)
 .data          0x00000000        0x0 c:/devkitpro/devkitppc/bin/../lib/gcc/powerpc-eabi/4.8.2/../../../../powerpc-eabi/lib\libc.a(lib_a-strtok.o)
 .bss           0x00000000        0x0 c:/devkitpro/devkitppc/bin/../lib/gcc/powerpc-eabi/4.8.2/../../../../powerpc-eabi/lib\libc.a(lib_a-strtok.o)
 .comment       0x00000000       0x23 c:/devkitpro/devkitppc/bin/../lib/gcc/powerpc-eabi/4.8.2/../../../../powerpc-eabi/lib\libc.a(lib_a-strtok.o)
 .text          0x00000000        0x0 c:/devkitpro/devkitppc/bin/../lib/gcc/powerpc-eabi/4.8.2/../../../../powerpc-eabi/lib\libc.a(lib_a-strtok_r.o)
 .data          0x00000000        0x0 c:/devkitpro/devkitppc/bin/../lib/gcc/powerpc-eabi/4.8.2/../../../../powerpc-eabi/lib\libc.a(lib_a-strtok_r.o)
 .bss           0x00000000        0x0 c:/devkitpro/devkitppc/bin/../lib/gcc/powerpc-eabi/4.8.2/../../../../powerpc-eabi/lib\libc.a(lib_a-strtok_r.o)
 .text.strtok_r
                0x00000000        0x8 c:/devkitpro/devkitppc/bin/../lib/gcc/powerpc-eabi/4.8.2/../../../../powerpc-eabi/lib\libc.a(lib_a-strtok_r.o)
 .comment       0x00000000       0x23 c:/devkitpro/devkitppc/bin/../lib/gcc/powerpc-eabi/4.8.2/../../../../powerpc-eabi/lib\libc.a(lib_a-strtok_r.o)
 .text          0x00000000        0x0 c:/devkitpro/devkitppc/bin/../lib/gcc/powerpc-eabi/4.8.2/../../../../powerpc-eabi/lib\libc.a(lib_a-strtol.o)
 .data          0x00000000        0x0 c:/devkitpro/devkitppc/bin/../lib/gcc/powerpc-eabi/4.8.2/../../../../powerpc-eabi/lib\libc.a(lib_a-strtol.o)
 .bss           0x00000000        0x0 c:/devkitpro/devkitppc/bin/../lib/gcc/powerpc-eabi/4.8.2/../../../../powerpc-eabi/lib\libc.a(lib_a-strtol.o)
 .comment       0x00000000       0x23 c:/devkitpro/devkitppc/bin/../lib/gcc/powerpc-eabi/4.8.2/../../../../powerpc-eabi/lib\libc.a(lib_a-strtol.o)
 .text          0x00000000        0x0 c:/devkitpro/devkitppc/bin/../lib/gcc/powerpc-eabi/4.8.2/../../../../powerpc-eabi/lib\libc.a(lib_a-svfprintf.o)
 .data          0x00000000        0x0 c:/devkitpro/devkitppc/bin/../lib/gcc/powerpc-eabi/4.8.2/../../../../powerpc-eabi/lib\libc.a(lib_a-svfprintf.o)
 .bss           0x00000000        0x0 c:/devkitpro/devkitppc/bin/../lib/gcc/powerpc-eabi/4.8.2/../../../../powerpc-eabi/lib\libc.a(lib_a-svfprintf.o)
 .comment       0x00000000       0x23 c:/devkitpro/devkitppc/bin/../lib/gcc/powerpc-eabi/4.8.2/../../../../powerpc-eabi/lib\libc.a(lib_a-svfprintf.o)
 .gnu.attributes
                0x00000000       0x10 c:/devkitpro/devkitppc/bin/../lib/gcc/powerpc-eabi/4.8.2/../../../../powerpc-eabi/lib\libc.a(lib_a-svfprintf.o)
 .text          0x00000000        0x0 c:/devkitpro/devkitppc/bin/../lib/gcc/powerpc-eabi/4.8.2/../../../../powerpc-eabi/lib\libc.a(lib_a-sysclose.o)
 .data          0x00000000        0x0 c:/devkitpro/devkitppc/bin/../lib/gcc/powerpc-eabi/4.8.2/../../../../powerpc-eabi/lib\libc.a(lib_a-sysclose.o)
 .bss           0x00000000        0x0 c:/devkitpro/devkitppc/bin/../lib/gcc/powerpc-eabi/4.8.2/../../../../powerpc-eabi/lib\libc.a(lib_a-sysclose.o)
 .text.close    0x00000000       0x10 c:/devkitpro/devkitppc/bin/../lib/gcc/powerpc-eabi/4.8.2/../../../../powerpc-eabi/lib\libc.a(lib_a-sysclose.o)
 .comment       0x00000000       0x23 c:/devkitpro/devkitppc/bin/../lib/gcc/powerpc-eabi/4.8.2/../../../../powerpc-eabi/lib\libc.a(lib_a-sysclose.o)
 .text          0x00000000        0x0 c:/devkitpro/devkitppc/bin/../lib/gcc/powerpc-eabi/4.8.2/../../../../powerpc-eabi/lib\libc.a(lib_a-syslseek.o)
 .data          0x00000000        0x0 c:/devkitpro/devkitppc/bin/../lib/gcc/powerpc-eabi/4.8.2/../../../../powerpc-eabi/lib\libc.a(lib_a-syslseek.o)
 .bss           0x00000000        0x0 c:/devkitpro/devkitppc/bin/../lib/gcc/powerpc-eabi/4.8.2/../../../../powerpc-eabi/lib\libc.a(lib_a-syslseek.o)
 .text.lseek    0x00000000       0x10 c:/devkitpro/devkitppc/bin/../lib/gcc/powerpc-eabi/4.8.2/../../../../powerpc-eabi/lib\libc.a(lib_a-syslseek.o)
 .comment       0x00000000       0x23 c:/devkitpro/devkitppc/bin/../lib/gcc/powerpc-eabi/4.8.2/../../../../powerpc-eabi/lib\libc.a(lib_a-syslseek.o)
 .text          0x00000000        0x0 c:/devkitpro/devkitppc/bin/../lib/gcc/powerpc-eabi/4.8.2/../../../../powerpc-eabi/lib\libc.a(lib_a-sysopen.o)
 .data          0x00000000        0x0 c:/devkitpro/devkitppc/bin/../lib/gcc/powerpc-eabi/4.8.2/../../../../powerpc-eabi/lib\libc.a(lib_a-sysopen.o)
 .bss           0x00000000        0x0 c:/devkitpro/devkitppc/bin/../lib/gcc/powerpc-eabi/4.8.2/../../../../powerpc-eabi/lib\libc.a(lib_a-sysopen.o)
 .text.open     0x00000000       0x58 c:/devkitpro/devkitppc/bin/../lib/gcc/powerpc-eabi/4.8.2/../../../../powerpc-eabi/lib\libc.a(lib_a-sysopen.o)
 .comment       0x00000000       0x23 c:/devkitpro/devkitppc/bin/../lib/gcc/powerpc-eabi/4.8.2/../../../../powerpc-eabi/lib\libc.a(lib_a-sysopen.o)
 .text          0x00000000        0x0 c:/devkitpro/devkitppc/bin/../lib/gcc/powerpc-eabi/4.8.2/../../../../powerpc-eabi/lib\libc.a(lib_a-sysread.o)
 .data          0x00000000        0x0 c:/devkitpro/devkitppc/bin/../lib/gcc/powerpc-eabi/4.8.2/../../../../powerpc-eabi/lib\libc.a(lib_a-sysread.o)
 .bss           0x00000000        0x0 c:/devkitpro/devkitppc/bin/../lib/gcc/powerpc-eabi/4.8.2/../../../../powerpc-eabi/lib\libc.a(lib_a-sysread.o)
 .text.read     0x00000000       0x20 c:/devkitpro/devkitppc/bin/../lib/gcc/powerpc-eabi/4.8.2/../../../../powerpc-eabi/lib\libc.a(lib_a-sysread.o)
 .comment       0x00000000       0x23 c:/devkitpro/devkitppc/bin/../lib/gcc/powerpc-eabi/4.8.2/../../../../powerpc-eabi/lib\libc.a(lib_a-sysread.o)
 .text          0x00000000        0x0 c:/devkitpro/devkitppc/bin/../lib/gcc/powerpc-eabi/4.8.2/../../../../powerpc-eabi/lib\libc.a(lib_a-sysstat.o)
 .data          0x00000000        0x0 c:/devkitpro/devkitppc/bin/../lib/gcc/powerpc-eabi/4.8.2/../../../../powerpc-eabi/lib\libc.a(lib_a-sysstat.o)
 .bss           0x00000000        0x0 c:/devkitpro/devkitppc/bin/../lib/gcc/powerpc-eabi/4.8.2/../../../../powerpc-eabi/lib\libc.a(lib_a-sysstat.o)
 .comment       0x00000000       0x23 c:/devkitpro/devkitppc/bin/../lib/gcc/powerpc-eabi/4.8.2/../../../../powerpc-eabi/lib\libc.a(lib_a-sysstat.o)
 .text          0x00000000        0x0 c:/devkitpro/devkitppc/bin/../lib/gcc/powerpc-eabi/4.8.2/../../../../powerpc-eabi/lib\libc.a(lib_a-vasprintf.o)
 .data          0x00000000        0x0 c:/devkitpro/devkitppc/bin/../lib/gcc/powerpc-eabi/4.8.2/../../../../powerpc-eabi/lib\libc.a(lib_a-vasprintf.o)
 .bss           0x00000000        0x0 c:/devkitpro/devkitppc/bin/../lib/gcc/powerpc-eabi/4.8.2/../../../../powerpc-eabi/lib\libc.a(lib_a-vasprintf.o)
 .comment       0x00000000       0x23 c:/devkitpro/devkitppc/bin/../lib/gcc/powerpc-eabi/4.8.2/../../../../powerpc-eabi/lib\libc.a(lib_a-vasprintf.o)
 .text          0x00000000        0x0 c:/devkitpro/devkitppc/bin/../lib/gcc/powerpc-eabi/4.8.2/../../../../powerpc-eabi/lib\libc.a(lib_a-vfprintf.o)
 .data          0x00000000        0x0 c:/devkitpro/devkitppc/bin/../lib/gcc/powerpc-eabi/4.8.2/../../../../powerpc-eabi/lib\libc.a(lib_a-vfprintf.o)
 .bss           0x00000000        0x0 c:/devkitpro/devkitppc/bin/../lib/gcc/powerpc-eabi/4.8.2/../../../../powerpc-eabi/lib\libc.a(lib_a-vfprintf.o)
 .text.vfprintf
                0x00000000       0x20 c:/devkitpro/devkitppc/bin/../lib/gcc/powerpc-eabi/4.8.2/../../../../powerpc-eabi/lib\libc.a(lib_a-vfprintf.o)
 .comment       0x00000000       0x23 c:/devkitpro/devkitppc/bin/../lib/gcc/powerpc-eabi/4.8.2/../../../../powerpc-eabi/lib\libc.a(lib_a-vfprintf.o)
 .gnu.attributes
                0x00000000       0x10 c:/devkitpro/devkitppc/bin/../lib/gcc/powerpc-eabi/4.8.2/../../../../powerpc-eabi/lib\libc.a(lib_a-vfprintf.o)
 .text          0x00000000        0x0 c:/devkitpro/devkitppc/bin/../lib/gcc/powerpc-eabi/4.8.2/../../../../powerpc-eabi/lib\libc.a(lib_a-wcrtomb.o)
 .data          0x00000000        0x0 c:/devkitpro/devkitppc/bin/../lib/gcc/powerpc-eabi/4.8.2/../../../../powerpc-eabi/lib\libc.a(lib_a-wcrtomb.o)
 .bss           0x00000000        0x0 c:/devkitpro/devkitppc/bin/../lib/gcc/powerpc-eabi/4.8.2/../../../../powerpc-eabi/lib\libc.a(lib_a-wcrtomb.o)
 .text.wcrtomb  0x00000000       0xe0 c:/devkitpro/devkitppc/bin/../lib/gcc/powerpc-eabi/4.8.2/../../../../powerpc-eabi/lib\libc.a(lib_a-wcrtomb.o)
 .comment       0x00000000       0x23 c:/devkitpro/devkitppc/bin/../lib/gcc/powerpc-eabi/4.8.2/../../../../powerpc-eabi/lib\libc.a(lib_a-wcrtomb.o)
 .text          0x00000000        0x0 c:/devkitpro/devkitppc/bin/../lib/gcc/powerpc-eabi/4.8.2/../../../../powerpc-eabi/lib\libc.a(lib_a-wcsrtombs.o)
 .data          0x00000000        0x0 c:/devkitpro/devkitppc/bin/../lib/gcc/powerpc-eabi/4.8.2/../../../../powerpc-eabi/lib\libc.a(lib_a-wcsrtombs.o)
 .bss           0x00000000        0x0 c:/devkitpro/devkitppc/bin/../lib/gcc/powerpc-eabi/4.8.2/../../../../powerpc-eabi/lib\libc.a(lib_a-wcsrtombs.o)
 .text.wcsrtombs
                0x00000000       0x28 c:/devkitpro/devkitppc/bin/../lib/gcc/powerpc-eabi/4.8.2/../../../../powerpc-eabi/lib\libc.a(lib_a-wcsrtombs.o)
 .comment       0x00000000       0x23 c:/devkitpro/devkitppc/bin/../lib/gcc/powerpc-eabi/4.8.2/../../../../powerpc-eabi/lib\libc.a(lib_a-wcsrtombs.o)
 .text          0x00000000        0x0 c:/devkitpro/devkitppc/bin/../lib/gcc/powerpc-eabi/4.8.2/../../../../powerpc-eabi/lib\libc.a(lib_a-wctomb_r.o)
 .data          0x00000000        0x0 c:/devkitpro/devkitppc/bin/../lib/gcc/powerpc-eabi/4.8.2/../../../../powerpc-eabi/lib\libc.a(lib_a-wctomb_r.o)
 .bss           0x00000000        0x0 c:/devkitpro/devkitppc/bin/../lib/gcc/powerpc-eabi/4.8.2/../../../../powerpc-eabi/lib\libc.a(lib_a-wctomb_r.o)
 .text._wctomb_r
                0x00000000       0x68 c:/devkitpro/devkitppc/bin/../lib/gcc/powerpc-eabi/4.8.2/../../../../powerpc-eabi/lib\libc.a(lib_a-wctomb_r.o)
 .text.__ascii_wctomb
                0x00000000       0x34 c:/devkitpro/devkitppc/bin/../lib/gcc/powerpc-eabi/4.8.2/../../../../powerpc-eabi/lib\libc.a(lib_a-wctomb_r.o)
 .text.__sjis_wctomb
                0x00000000       0x8c c:/devkitpro/devkitppc/bin/../lib/gcc/powerpc-eabi/4.8.2/../../../../powerpc-eabi/lib\libc.a(lib_a-wctomb_r.o)
 .text.__eucjp_wctomb
                0x00000000       0xb8 c:/devkitpro/devkitppc/bin/../lib/gcc/powerpc-eabi/4.8.2/../../../../powerpc-eabi/lib\libc.a(lib_a-wctomb_r.o)
 .text.__jis_wctomb
                0x00000000       0xd0 c:/devkitpro/devkitppc/bin/../lib/gcc/powerpc-eabi/4.8.2/../../../../powerpc-eabi/lib\libc.a(lib_a-wctomb_r.o)
 .comment       0x00000000       0x23 c:/devkitpro/devkitppc/bin/../lib/gcc/powerpc-eabi/4.8.2/../../../../powerpc-eabi/lib\libc.a(lib_a-wctomb_r.o)
 .text          0x00000000        0x0 c:/devkitpro/devkitppc/bin/../lib/gcc/powerpc-eabi/4.8.2/../../../../powerpc-eabi/lib\libc.a(lib_a-wsetup.o)
 .data          0x00000000        0x0 c:/devkitpro/devkitppc/bin/../lib/gcc/powerpc-eabi/4.8.2/../../../../powerpc-eabi/lib\libc.a(lib_a-wsetup.o)
 .bss           0x00000000        0x0 c:/devkitpro/devkitppc/bin/../lib/gcc/powerpc-eabi/4.8.2/../../../../powerpc-eabi/lib\libc.a(lib_a-wsetup.o)
 .comment       0x00000000       0x23 c:/devkitpro/devkitppc/bin/../lib/gcc/powerpc-eabi/4.8.2/../../../../powerpc-eabi/lib\libc.a(lib_a-wsetup.o)
 .text          0x00000000        0x0 c:/devkitpro/devkitppc/bin/../lib/gcc/powerpc-eabi/4.8.2/../../../../powerpc-eabi/lib\libc.a(lib_a-ctype_.o)
 .data          0x00000000        0x0 c:/devkitpro/devkitppc/bin/../lib/gcc/powerpc-eabi/4.8.2/../../../../powerpc-eabi/lib\libc.a(lib_a-ctype_.o)
 .bss           0x00000000        0x0 c:/devkitpro/devkitppc/bin/../lib/gcc/powerpc-eabi/4.8.2/../../../../powerpc-eabi/lib\libc.a(lib_a-ctype_.o)
 .text.__set_ctype
                0x00000000       0x14 c:/devkitpro/devkitppc/bin/../lib/gcc/powerpc-eabi/4.8.2/../../../../powerpc-eabi/lib\libc.a(lib_a-ctype_.o)
 .comment       0x00000000       0x23 c:/devkitpro/devkitppc/bin/../lib/gcc/powerpc-eabi/4.8.2/../../../../powerpc-eabi/lib\libc.a(lib_a-ctype_.o)
 .text          0x00000000        0x0 c:/devkitpro/devkitppc/bin/../lib/gcc/powerpc-eabi/4.8.2/../../../../powerpc-eabi/lib\libc.a(lib_a-dtoa.o)
 .data          0x00000000        0x0 c:/devkitpro/devkitppc/bin/../lib/gcc/powerpc-eabi/4.8.2/../../../../powerpc-eabi/lib\libc.a(lib_a-dtoa.o)
 .bss           0x00000000        0x0 c:/devkitpro/devkitppc/bin/../lib/gcc/powerpc-eabi/4.8.2/../../../../powerpc-eabi/lib\libc.a(lib_a-dtoa.o)
 .comment       0x00000000       0x23 c:/devkitpro/devkitppc/bin/../lib/gcc/powerpc-eabi/4.8.2/../../../../powerpc-eabi/lib\libc.a(lib_a-dtoa.o)
 .gnu.attributes
                0x00000000       0x10 c:/devkitpro/devkitppc/bin/../lib/gcc/powerpc-eabi/4.8.2/../../../../powerpc-eabi/lib\libc.a(lib_a-dtoa.o)
 .text          0x00000000        0x0 c:/devkitpro/devkitppc/bin/../lib/gcc/powerpc-eabi/4.8.2/../../../../powerpc-eabi/lib\libc.a(lib_a-flags.o)
 .data          0x00000000        0x0 c:/devkitpro/devkitppc/bin/../lib/gcc/powerpc-eabi/4.8.2/../../../../powerpc-eabi/lib\libc.a(lib_a-flags.o)
 .bss           0x00000000        0x0 c:/devkitpro/devkitppc/bin/../lib/gcc/powerpc-eabi/4.8.2/../../../../powerpc-eabi/lib\libc.a(lib_a-flags.o)
 .comment       0x00000000       0x23 c:/devkitpro/devkitppc/bin/../lib/gcc/powerpc-eabi/4.8.2/../../../../powerpc-eabi/lib\libc.a(lib_a-flags.o)
 .text          0x00000000        0x0 c:/devkitpro/devkitppc/bin/../lib/gcc/powerpc-eabi/4.8.2/../../../../powerpc-eabi/lib\libc.a(lib_a-fvwrite.o)
 .data          0x00000000        0x0 c:/devkitpro/devkitppc/bin/../lib/gcc/powerpc-eabi/4.8.2/../../../../powerpc-eabi/lib\libc.a(lib_a-fvwrite.o)
 .bss           0x00000000        0x0 c:/devkitpro/devkitppc/bin/../lib/gcc/powerpc-eabi/4.8.2/../../../../powerpc-eabi/lib\libc.a(lib_a-fvwrite.o)
 .comment       0x00000000       0x23 c:/devkitpro/devkitppc/bin/../lib/gcc/powerpc-eabi/4.8.2/../../../../powerpc-eabi/lib\libc.a(lib_a-fvwrite.o)
 .text          0x00000000        0x0 c:/devkitpro/devkitppc/bin/../lib/gcc/powerpc-eabi/4.8.2/../../../../powerpc-eabi/lib\libc.a(lib_a-locale.o)
 .data          0x00000000        0x0 c:/devkitpro/devkitppc/bin/../lib/gcc/powerpc-eabi/4.8.2/../../../../powerpc-eabi/lib\libc.a(lib_a-locale.o)
 .bss           0x00000000        0x0 c:/devkitpro/devkitppc/bin/../lib/gcc/powerpc-eabi/4.8.2/../../../../powerpc-eabi/lib\libc.a(lib_a-locale.o)
 .text.__get_locale_env
                0x00000000       0xac c:/devkitpro/devkitppc/bin/../lib/gcc/powerpc-eabi/4.8.2/../../../../powerpc-eabi/lib\libc.a(lib_a-locale.o)
 .text.loadlocale
                0x00000000      0x854 c:/devkitpro/devkitppc/bin/../lib/gcc/powerpc-eabi/4.8.2/../../../../powerpc-eabi/lib\libc.a(lib_a-locale.o)
 .rodata.loadlocale
                0x00000000       0xd4 c:/devkitpro/devkitppc/bin/../lib/gcc/powerpc-eabi/4.8.2/../../../../powerpc-eabi/lib\libc.a(lib_a-locale.o)
 .text.currentlocale
                0x00000000       0xec c:/devkitpro/devkitppc/bin/../lib/gcc/powerpc-eabi/4.8.2/../../../../powerpc-eabi/lib\libc.a(lib_a-locale.o)
 .text._setlocale_r
                0x00000000      0x3e0 c:/devkitpro/devkitppc/bin/../lib/gcc/powerpc-eabi/4.8.2/../../../../powerpc-eabi/lib\libc.a(lib_a-locale.o)
 .text.__locale_msgcharset
                0x00000000        0xc c:/devkitpro/devkitppc/bin/../lib/gcc/powerpc-eabi/4.8.2/../../../../powerpc-eabi/lib\libc.a(lib_a-locale.o)
 .text.__locale_cjk_lang
                0x00000000        0xc c:/devkitpro/devkitppc/bin/../lib/gcc/powerpc-eabi/4.8.2/../../../../powerpc-eabi/lib\libc.a(lib_a-locale.o)
 .text.setlocale
                0x00000000       0x18 c:/devkitpro/devkitppc/bin/../lib/gcc/powerpc-eabi/4.8.2/../../../../powerpc-eabi/lib\libc.a(lib_a-locale.o)
 .text.localeconv
                0x00000000        0xc c:/devkitpro/devkitppc/bin/../lib/gcc/powerpc-eabi/4.8.2/../../../../powerpc-eabi/lib\libc.a(lib_a-locale.o)
 .sbss._PathLocale
                0x00000000        0x4 c:/devkitpro/devkitppc/bin/../lib/gcc/powerpc-eabi/4.8.2/../../../../powerpc-eabi/lib\libc.a(lib_a-locale.o)
 .bss.lc_ctype_cjk_lang
                0x00000000        0x4 c:/devkitpro/devkitppc/bin/../lib/gcc/powerpc-eabi/4.8.2/../../../../powerpc-eabi/lib\libc.a(lib_a-locale.o)
 .sbss.__mlocale_changed
                0x00000000        0x4 c:/devkitpro/devkitppc/bin/../lib/gcc/powerpc-eabi/4.8.2/../../../../powerpc-eabi/lib\libc.a(lib_a-locale.o)
 .data.current_categories
                0x00000000       0xe0 c:/devkitpro/devkitppc/bin/../lib/gcc/powerpc-eabi/4.8.2/../../../../powerpc-eabi/lib\libc.a(lib_a-locale.o)
 .bss.new_categories
                0x00000000       0xe0 c:/devkitpro/devkitppc/bin/../lib/gcc/powerpc-eabi/4.8.2/../../../../powerpc-eabi/lib\libc.a(lib_a-locale.o)
 .data.__default_locale
                0x00000000       0x20 c:/devkitpro/devkitppc/bin/../lib/gcc/powerpc-eabi/4.8.2/../../../../powerpc-eabi/lib\libc.a(lib_a-locale.o)
 .rodata.categories
                0x00000000       0x1c c:/devkitpro/devkitppc/bin/../lib/gcc/powerpc-eabi/4.8.2/../../../../powerpc-eabi/lib\libc.a(lib_a-locale.o)
 .data.lc_message_charset
                0x00000000       0x20 c:/devkitpro/devkitppc/bin/../lib/gcc/powerpc-eabi/4.8.2/../../../../powerpc-eabi/lib\libc.a(lib_a-locale.o)
 .bss.current_locale_string
                0x00000000       0xe7 c:/devkitpro/devkitppc/bin/../lib/gcc/powerpc-eabi/4.8.2/../../../../powerpc-eabi/lib\libc.a(lib_a-locale.o)
 .sbss.__nlocale_changed
                0x00000000        0x4 c:/devkitpro/devkitppc/bin/../lib/gcc/powerpc-eabi/4.8.2/../../../../powerpc-eabi/lib\libc.a(lib_a-locale.o)
 .bss.saved_categories
                0x00000000       0xe0 c:/devkitpro/devkitppc/bin/../lib/gcc/powerpc-eabi/4.8.2/../../../../powerpc-eabi/lib\libc.a(lib_a-locale.o)
 .comment       0x00000000       0x23 c:/devkitpro/devkitppc/bin/../lib/gcc/powerpc-eabi/4.8.2/../../../../powerpc-eabi/lib\libc.a(lib_a-locale.o)
 .text          0x00000000        0x0 c:/devkitpro/devkitppc/bin/../lib/gcc/powerpc-eabi/4.8.2/../../../../powerpc-eabi/lib\libc.a(lib_a-mbtowc_r.o)
 .data          0x00000000        0x0 c:/devkitpro/devkitppc/bin/../lib/gcc/powerpc-eabi/4.8.2/../../../../powerpc-eabi/lib\libc.a(lib_a-mbtowc_r.o)
 .bss           0x00000000        0x0 c:/devkitpro/devkitppc/bin/../lib/gcc/powerpc-eabi/4.8.2/../../../../powerpc-eabi/lib\libc.a(lib_a-mbtowc_r.o)
 .text._mbtowc_r
                0x00000000       0x70 c:/devkitpro/devkitppc/bin/../lib/gcc/powerpc-eabi/4.8.2/../../../../powerpc-eabi/lib\libc.a(lib_a-mbtowc_r.o)
 .text.__ascii_mbtowc
                0x00000000       0x58 c:/devkitpro/devkitppc/bin/../lib/gcc/powerpc-eabi/4.8.2/../../../../powerpc-eabi/lib\libc.a(lib_a-mbtowc_r.o)
 .text.__sjis_mbtowc
                0x00000000       0xec c:/devkitpro/devkitppc/bin/../lib/gcc/powerpc-eabi/4.8.2/../../../../powerpc-eabi/lib\libc.a(lib_a-mbtowc_r.o)
 .text.__eucjp_mbtowc
                0x00000000      0x148 c:/devkitpro/devkitppc/bin/../lib/gcc/powerpc-eabi/4.8.2/../../../../powerpc-eabi/lib\libc.a(lib_a-mbtowc_r.o)
 .text.__jis_mbtowc
                0x00000000      0x23c c:/devkitpro/devkitppc/bin/../lib/gcc/powerpc-eabi/4.8.2/../../../../powerpc-eabi/lib\libc.a(lib_a-mbtowc_r.o)
 .rodata.__jis_mbtowc
                0x00000000       0x18 c:/devkitpro/devkitppc/bin/../lib/gcc/powerpc-eabi/4.8.2/../../../../powerpc-eabi/lib\libc.a(lib_a-mbtowc_r.o)
 .rodata.JIS_state_table
                0x00000000       0x48 c:/devkitpro/devkitppc/bin/../lib/gcc/powerpc-eabi/4.8.2/../../../../powerpc-eabi/lib\libc.a(lib_a-mbtowc_r.o)
 .rodata.JIS_action_table
                0x00000000       0x48 c:/devkitpro/devkitppc/bin/../lib/gcc/powerpc-eabi/4.8.2/../../../../powerpc-eabi/lib\libc.a(lib_a-mbtowc_r.o)
 .comment       0x00000000       0x23 c:/devkitpro/devkitppc/bin/../lib/gcc/powerpc-eabi/4.8.2/../../../../powerpc-eabi/lib\libc.a(lib_a-mbtowc_r.o)
 .text          0x00000000        0x0 c:/devkitpro/devkitppc/bin/../lib/gcc/powerpc-eabi/4.8.2/../../../../powerpc-eabi/lib\libc.a(lib_a-memmove.o)
 .data          0x00000000        0x0 c:/devkitpro/devkitppc/bin/../lib/gcc/powerpc-eabi/4.8.2/../../../../powerpc-eabi/lib\libc.a(lib_a-memmove.o)
 .bss           0x00000000        0x0 c:/devkitpro/devkitppc/bin/../lib/gcc/powerpc-eabi/4.8.2/../../../../powerpc-eabi/lib\libc.a(lib_a-memmove.o)
 .comment       0x00000000       0x23 c:/devkitpro/devkitppc/bin/../lib/gcc/powerpc-eabi/4.8.2/../../../../powerpc-eabi/lib\libc.a(lib_a-memmove.o)
 .text          0x00000000        0x0 c:/devkitpro/devkitppc/bin/../lib/gcc/powerpc-eabi/4.8.2/../../../../powerpc-eabi/lib\libc.a(lib_a-mprec.o)
 .data          0x00000000        0x0 c:/devkitpro/devkitppc/bin/../lib/gcc/powerpc-eabi/4.8.2/../../../../powerpc-eabi/lib\libc.a(lib_a-mprec.o)
 .bss           0x00000000        0x0 c:/devkitpro/devkitppc/bin/../lib/gcc/powerpc-eabi/4.8.2/../../../../powerpc-eabi/lib\libc.a(lib_a-mprec.o)
 .text.__s2b    0x00000000      0x144 c:/devkitpro/devkitppc/bin/../lib/gcc/powerpc-eabi/4.8.2/../../../../powerpc-eabi/lib\libc.a(lib_a-mprec.o)
 .text.__ulp    0x00000000       0x98 c:/devkitpro/devkitppc/bin/../lib/gcc/powerpc-eabi/4.8.2/../../../../powerpc-eabi/lib\libc.a(lib_a-mprec.o)
 .text.__b2d    0x00000000      0x154 c:/devkitpro/devkitppc/bin/../lib/gcc/powerpc-eabi/4.8.2/../../../../powerpc-eabi/lib\libc.a(lib_a-mprec.o)
 .text.__ratio  0x00000000       0xd8 c:/devkitpro/devkitppc/bin/../lib/gcc/powerpc-eabi/4.8.2/../../../../powerpc-eabi/lib\libc.a(lib_a-mprec.o)
 .text._mprec_log10
                0x00000000       0x3c c:/devkitpro/devkitppc/bin/../lib/gcc/powerpc-eabi/4.8.2/../../../../powerpc-eabi/lib\libc.a(lib_a-mprec.o)
 .text.__copybits
                0x00000000       0x78 c:/devkitpro/devkitppc/bin/../lib/gcc/powerpc-eabi/4.8.2/../../../../powerpc-eabi/lib\libc.a(lib_a-mprec.o)
 .text.__any_on
                0x00000000       0x94 c:/devkitpro/devkitppc/bin/../lib/gcc/powerpc-eabi/4.8.2/../../../../powerpc-eabi/lib\libc.a(lib_a-mprec.o)
 .rodata.cst4   0x00000000        0x8 c:/devkitpro/devkitppc/bin/../lib/gcc/powerpc-eabi/4.8.2/../../../../powerpc-eabi/lib\libc.a(lib_a-mprec.o)
 .rodata.__mprec_tinytens
                0x00000000       0x28 c:/devkitpro/devkitppc/bin/../lib/gcc/powerpc-eabi/4.8.2/../../../../powerpc-eabi/lib\libc.a(lib_a-mprec.o)
 .comment       0x00000000       0x23 c:/devkitpro/devkitppc/bin/../lib/gcc/powerpc-eabi/4.8.2/../../../../powerpc-eabi/lib\libc.a(lib_a-mprec.o)
 .gnu.attributes
                0x00000000       0x10 c:/devkitpro/devkitppc/bin/../lib/gcc/powerpc-eabi/4.8.2/../../../../powerpc-eabi/lib\libc.a(lib_a-mprec.o)
 .text          0x00000000        0x0 c:/devkitpro/devkitppc/bin/../lib/gcc/powerpc-eabi/4.8.2/../../../../powerpc-eabi/lib\libc.a(lib_a-s_fpclassify.o)
 .data          0x00000000        0x0 c:/devkitpro/devkitppc/bin/../lib/gcc/powerpc-eabi/4.8.2/../../../../powerpc-eabi/lib\libc.a(lib_a-s_fpclassify.o)
 .bss           0x00000000        0x0 c:/devkitpro/devkitppc/bin/../lib/gcc/powerpc-eabi/4.8.2/../../../../powerpc-eabi/lib\libc.a(lib_a-s_fpclassify.o)
 .comment       0x00000000       0x23 c:/devkitpro/devkitppc/bin/../lib/gcc/powerpc-eabi/4.8.2/../../../../powerpc-eabi/lib\libc.a(lib_a-s_fpclassify.o)
 .gnu.attributes
                0x00000000       0x10 c:/devkitpro/devkitppc/bin/../lib/gcc/powerpc-eabi/4.8.2/../../../../powerpc-eabi/lib\libc.a(lib_a-s_fpclassify.o)
 .text          0x00000000        0x0 c:/devkitpro/devkitppc/bin/../lib/gcc/powerpc-eabi/4.8.2/../../../../powerpc-eabi/lib\libc.a(lib_a-strcasecmp.o)
 .data          0x00000000        0x0 c:/devkitpro/devkitppc/bin/../lib/gcc/powerpc-eabi/4.8.2/../../../../powerpc-eabi/lib\libc.a(lib_a-strcasecmp.o)
 .bss           0x00000000        0x0 c:/devkitpro/devkitppc/bin/../lib/gcc/powerpc-eabi/4.8.2/../../../../powerpc-eabi/lib\libc.a(lib_a-strcasecmp.o)
 .text.strcasecmp
                0x00000000       0x8c c:/devkitpro/devkitppc/bin/../lib/gcc/powerpc-eabi/4.8.2/../../../../powerpc-eabi/lib\libc.a(lib_a-strcasecmp.o)
 .comment       0x00000000       0x23 c:/devkitpro/devkitppc/bin/../lib/gcc/powerpc-eabi/4.8.2/../../../../powerpc-eabi/lib\libc.a(lib_a-strcasecmp.o)
 .text          0x00000000        0x0 c:/devkitpro/devkitppc/bin/../lib/gcc/powerpc-eabi/4.8.2/../../../../powerpc-eabi/lib\libc.a(lib_a-strcat.o)
 .data          0x00000000        0x0 c:/devkitpro/devkitppc/bin/../lib/gcc/powerpc-eabi/4.8.2/../../../../powerpc-eabi/lib\libc.a(lib_a-strcat.o)
 .bss           0x00000000        0x0 c:/devkitpro/devkitppc/bin/../lib/gcc/powerpc-eabi/4.8.2/../../../../powerpc-eabi/lib\libc.a(lib_a-strcat.o)
 .text.strcat   0x00000000       0x88 c:/devkitpro/devkitppc/bin/../lib/gcc/powerpc-eabi/4.8.2/../../../../powerpc-eabi/lib\libc.a(lib_a-strcat.o)
 .comment       0x00000000       0x23 c:/devkitpro/devkitppc/bin/../lib/gcc/powerpc-eabi/4.8.2/../../../../powerpc-eabi/lib\libc.a(lib_a-strcat.o)
 .text          0x00000000        0x0 c:/devkitpro/devkitppc/bin/../lib/gcc/powerpc-eabi/4.8.2/../../../../powerpc-eabi/lib\libc.a(lib_a-strlcpy.o)
 .data          0x00000000        0x0 c:/devkitpro/devkitppc/bin/../lib/gcc/powerpc-eabi/4.8.2/../../../../powerpc-eabi/lib\libc.a(lib_a-strlcpy.o)
 .bss           0x00000000        0x0 c:/devkitpro/devkitppc/bin/../lib/gcc/powerpc-eabi/4.8.2/../../../../powerpc-eabi/lib\libc.a(lib_a-strlcpy.o)
 .text.strlcpy  0x00000000       0x78 c:/devkitpro/devkitppc/bin/../lib/gcc/powerpc-eabi/4.8.2/../../../../powerpc-eabi/lib\libc.a(lib_a-strlcpy.o)
 .comment       0x00000000       0x23 c:/devkitpro/devkitppc/bin/../lib/gcc/powerpc-eabi/4.8.2/../../../../powerpc-eabi/lib\libc.a(lib_a-strlcpy.o)
 .text          0x00000000        0x0 c:/devkitpro/devkitppc/bin/../lib/gcc/powerpc-eabi/4.8.2/../../../../powerpc-eabi/lib\libc.a(lib_a-strncasecmp.o)
 .data          0x00000000        0x0 c:/devkitpro/devkitppc/bin/../lib/gcc/powerpc-eabi/4.8.2/../../../../powerpc-eabi/lib\libc.a(lib_a-strncasecmp.o)
 .bss           0x00000000        0x0 c:/devkitpro/devkitppc/bin/../lib/gcc/powerpc-eabi/4.8.2/../../../../powerpc-eabi/lib\libc.a(lib_a-strncasecmp.o)
 .text.strncasecmp
                0x00000000       0x80 c:/devkitpro/devkitppc/bin/../lib/gcc/powerpc-eabi/4.8.2/../../../../powerpc-eabi/lib\libc.a(lib_a-strncasecmp.o)
 .comment       0x00000000       0x23 c:/devkitpro/devkitppc/bin/../lib/gcc/powerpc-eabi/4.8.2/../../../../powerpc-eabi/lib\libc.a(lib_a-strncasecmp.o)
 .text          0x00000000        0x0 c:/devkitpro/devkitppc/bin/../lib/gcc/powerpc-eabi/4.8.2/../../../../powerpc-eabi/lib\libc.a(lib_a-svfiprintf.o)
 .data          0x00000000        0x0 c:/devkitpro/devkitppc/bin/../lib/gcc/powerpc-eabi/4.8.2/../../../../powerpc-eabi/lib\libc.a(lib_a-svfiprintf.o)
 .bss           0x00000000        0x0 c:/devkitpro/devkitppc/bin/../lib/gcc/powerpc-eabi/4.8.2/../../../../powerpc-eabi/lib\libc.a(lib_a-svfiprintf.o)
 .text._svfiprintf_r
                0x00000000     0x1524 c:/devkitpro/devkitppc/bin/../lib/gcc/powerpc-eabi/4.8.2/../../../../powerpc-eabi/lib\libc.a(lib_a-svfiprintf.o)
 .rodata._svfiprintf_r
                0x00000000      0x164 c:/devkitpro/devkitppc/bin/../lib/gcc/powerpc-eabi/4.8.2/../../../../powerpc-eabi/lib\libc.a(lib_a-svfiprintf.o)
 .rodata.cst4   0x00000000        0x4 c:/devkitpro/devkitppc/bin/../lib/gcc/powerpc-eabi/4.8.2/../../../../powerpc-eabi/lib\libc.a(lib_a-svfiprintf.o)
 .rodata.blanks.4127
                0x00000000       0x10 c:/devkitpro/devkitppc/bin/../lib/gcc/powerpc-eabi/4.8.2/../../../../powerpc-eabi/lib\libc.a(lib_a-svfiprintf.o)
 .rodata.str1.4
                0x00000000       0x4b c:/devkitpro/devkitppc/bin/../lib/gcc/powerpc-eabi/4.8.2/../../../../powerpc-eabi/lib\libc.a(lib_a-svfiprintf.o)
 .rodata.zeroes.4128
                0x00000000       0x10 c:/devkitpro/devkitppc/bin/../lib/gcc/powerpc-eabi/4.8.2/../../../../powerpc-eabi/lib\libc.a(lib_a-svfiprintf.o)
 .comment       0x00000000       0x23 c:/devkitpro/devkitppc/bin/../lib/gcc/powerpc-eabi/4.8.2/../../../../powerpc-eabi/lib\libc.a(lib_a-svfiprintf.o)
 .text          0x00000000        0x0 c:/devkitpro/devkitppc/bin/../lib/gcc/powerpc-eabi/4.8.2/../../../../powerpc-eabi/lib\libc.a(lib_a-vfiprintf.o)
 .data          0x00000000        0x0 c:/devkitpro/devkitppc/bin/../lib/gcc/powerpc-eabi/4.8.2/../../../../powerpc-eabi/lib\libc.a(lib_a-vfiprintf.o)
 .bss           0x00000000        0x0 c:/devkitpro/devkitppc/bin/../lib/gcc/powerpc-eabi/4.8.2/../../../../powerpc-eabi/lib\libc.a(lib_a-vfiprintf.o)
 .text._vfiprintf_r
                0x00000000     0x1714 c:/devkitpro/devkitppc/bin/../lib/gcc/powerpc-eabi/4.8.2/../../../../powerpc-eabi/lib\libc.a(lib_a-vfiprintf.o)
 .rodata._vfiprintf_r
                0x00000000      0x164 c:/devkitpro/devkitppc/bin/../lib/gcc/powerpc-eabi/4.8.2/../../../../powerpc-eabi/lib\libc.a(lib_a-vfiprintf.o)
 .text.vfiprintf
                0x00000000       0x20 c:/devkitpro/devkitppc/bin/../lib/gcc/powerpc-eabi/4.8.2/../../../../powerpc-eabi/lib\libc.a(lib_a-vfiprintf.o)
 .text.__sbprintf
                0x00000000       0xf8 c:/devkitpro/devkitppc/bin/../lib/gcc/powerpc-eabi/4.8.2/../../../../powerpc-eabi/lib\libc.a(lib_a-vfiprintf.o)
 .rodata.zeroes.4142
                0x00000000       0x10 c:/devkitpro/devkitppc/bin/../lib/gcc/powerpc-eabi/4.8.2/../../../../powerpc-eabi/lib\libc.a(lib_a-vfiprintf.o)
 .rodata.blanks.4141
                0x00000000       0x10 c:/devkitpro/devkitppc/bin/../lib/gcc/powerpc-eabi/4.8.2/../../../../powerpc-eabi/lib\libc.a(lib_a-vfiprintf.o)
 .rodata.str1.4
                0x00000000       0x2f c:/devkitpro/devkitppc/bin/../lib/gcc/powerpc-eabi/4.8.2/../../../../powerpc-eabi/lib\libc.a(lib_a-vfiprintf.o)
 .comment       0x00000000       0x23 c:/devkitpro/devkitppc/bin/../lib/gcc/powerpc-eabi/4.8.2/../../../../powerpc-eabi/lib\libc.a(lib_a-vfiprintf.o)
 .text          0x00000000        0x0 c:/devkitpro/devkitppc/bin/../lib/gcc/powerpc-eabi/4.8.2/../../../../powerpc-eabi/lib\libc.a(lib_a-wcsnrtombs.o)
 .data          0x00000000        0x0 c:/devkitpro/devkitppc/bin/../lib/gcc/powerpc-eabi/4.8.2/../../../../powerpc-eabi/lib\libc.a(lib_a-wcsnrtombs.o)
 .bss           0x00000000        0x0 c:/devkitpro/devkitppc/bin/../lib/gcc/powerpc-eabi/4.8.2/../../../../powerpc-eabi/lib\libc.a(lib_a-wcsnrtombs.o)
 .text.wcsnrtombs
                0x00000000       0x30 c:/devkitpro/devkitppc/bin/../lib/gcc/powerpc-eabi/4.8.2/../../../../powerpc-eabi/lib\libc.a(lib_a-wcsnrtombs.o)
 .comment       0x00000000       0x23 c:/devkitpro/devkitppc/bin/../lib/gcc/powerpc-eabi/4.8.2/../../../../powerpc-eabi/lib\libc.a(lib_a-wcsnrtombs.o)
 .text          0x00000000        0x0 c:/devkitpro/devkitppc/bin/../lib/gcc/powerpc-eabi/4.8.2/../../../../powerpc-eabi/lib\libc.a(lib_a-fputwc.o)
 .data          0x00000000        0x0 c:/devkitpro/devkitppc/bin/../lib/gcc/powerpc-eabi/4.8.2/../../../../powerpc-eabi/lib\libc.a(lib_a-fputwc.o)
 .bss           0x00000000        0x0 c:/devkitpro/devkitppc/bin/../lib/gcc/powerpc-eabi/4.8.2/../../../../powerpc-eabi/lib\libc.a(lib_a-fputwc.o)
 .text.fputwc   0x00000000       0x88 c:/devkitpro/devkitppc/bin/../lib/gcc/powerpc-eabi/4.8.2/../../../../powerpc-eabi/lib\libc.a(lib_a-fputwc.o)
 .comment       0x00000000       0x23 c:/devkitpro/devkitppc/bin/../lib/gcc/powerpc-eabi/4.8.2/../../../../powerpc-eabi/lib\libc.a(lib_a-fputwc.o)
 .text          0x00000000        0x0 c:/devkitpro/devkitppc/bin/../lib/gcc/powerpc-eabi/4.8.2/../../../../powerpc-eabi/lib\libc.a(lib_a-getenv_r.o)
 .data          0x00000000        0x0 c:/devkitpro/devkitppc/bin/../lib/gcc/powerpc-eabi/4.8.2/../../../../powerpc-eabi/lib\libc.a(lib_a-getenv_r.o)
 .bss           0x00000000        0x0 c:/devkitpro/devkitppc/bin/../lib/gcc/powerpc-eabi/4.8.2/../../../../powerpc-eabi/lib\libc.a(lib_a-getenv_r.o)
 .text._findenv_r
                0x00000000      0x144 c:/devkitpro/devkitppc/bin/../lib/gcc/powerpc-eabi/4.8.2/../../../../powerpc-eabi/lib\libc.a(lib_a-getenv_r.o)
 .text._getenv_r
                0x00000000       0x24 c:/devkitpro/devkitppc/bin/../lib/gcc/powerpc-eabi/4.8.2/../../../../powerpc-eabi/lib\libc.a(lib_a-getenv_r.o)
 .comment       0x00000000       0x23 c:/devkitpro/devkitppc/bin/../lib/gcc/powerpc-eabi/4.8.2/../../../../powerpc-eabi/lib\libc.a(lib_a-getenv_r.o)
 .text          0x00000000        0x0 c:/devkitpro/devkitppc/bin/../lib/gcc/powerpc-eabi/4.8.2/../../../../powerpc-eabi/lib\libc.a(lib_a-wbuf.o)
 .data          0x00000000        0x0 c:/devkitpro/devkitppc/bin/../lib/gcc/powerpc-eabi/4.8.2/../../../../powerpc-eabi/lib\libc.a(lib_a-wbuf.o)
 .bss           0x00000000        0x0 c:/devkitpro/devkitppc/bin/../lib/gcc/powerpc-eabi/4.8.2/../../../../powerpc-eabi/lib\libc.a(lib_a-wbuf.o)
 .text.__swbuf  0x00000000       0x18 c:/devkitpro/devkitppc/bin/../lib/gcc/powerpc-eabi/4.8.2/../../../../powerpc-eabi/lib\libc.a(lib_a-wbuf.o)
 .comment       0x00000000       0x23 c:/devkitpro/devkitppc/bin/../lib/gcc/powerpc-eabi/4.8.2/../../../../powerpc-eabi/lib\libc.a(lib_a-wbuf.o)
 .text          0x00000000        0x0 c:/devkitpro/devkitppc/bin/../lib/gcc/powerpc-eabi/4.8.2/../../../../powerpc-eabi/lib\libc.a(lib_a-environ.o)
 .data          0x00000000        0x0 c:/devkitpro/devkitppc/bin/../lib/gcc/powerpc-eabi/4.8.2/../../../../powerpc-eabi/lib\libc.a(lib_a-environ.o)
 .bss           0x00000000        0x0 c:/devkitpro/devkitppc/bin/../lib/gcc/powerpc-eabi/4.8.2/../../../../powerpc-eabi/lib\libc.a(lib_a-environ.o)
 .bss.initial_env
                0x00000000        0x4 c:/devkitpro/devkitppc/bin/../lib/gcc/powerpc-eabi/4.8.2/../../../../powerpc-eabi/lib\libc.a(lib_a-environ.o)
 .sdata.environ
                0x00000000        0x4 c:/devkitpro/devkitppc/bin/../lib/gcc/powerpc-eabi/4.8.2/../../../../powerpc-eabi/lib\libc.a(lib_a-environ.o)
 .comment       0x00000000       0x23 c:/devkitpro/devkitppc/bin/../lib/gcc/powerpc-eabi/4.8.2/../../../../powerpc-eabi/lib\libc.a(lib_a-environ.o)
 .text          0x00000000        0x0 c:/devkitpro/devkitppc/bin/../lib/gcc/powerpc-eabi/4.8.2/../../../../powerpc-eabi/lib\libc.a(lib_a-envlock.o)
 .data          0x00000000        0x0 c:/devkitpro/devkitppc/bin/../lib/gcc/powerpc-eabi/4.8.2/../../../../powerpc-eabi/lib\libc.a(lib_a-envlock.o)
 .bss           0x00000000        0x0 c:/devkitpro/devkitppc/bin/../lib/gcc/powerpc-eabi/4.8.2/../../../../powerpc-eabi/lib\libc.a(lib_a-envlock.o)
 .text.__env_lock
                0x00000000       0x48 c:/devkitpro/devkitppc/bin/../lib/gcc/powerpc-eabi/4.8.2/../../../../powerpc-eabi/lib\libc.a(lib_a-envlock.o)
 .text.__env_unlock
                0x00000000        0xc c:/devkitpro/devkitppc/bin/../lib/gcc/powerpc-eabi/4.8.2/../../../../powerpc-eabi/lib\libc.a(lib_a-envlock.o)
 .bss.__env_lock_object
                0x00000000        0x4 c:/devkitpro/devkitppc/bin/../lib/gcc/powerpc-eabi/4.8.2/../../../../powerpc-eabi/lib\libc.a(lib_a-envlock.o)
 .comment       0x00000000       0x23 c:/devkitpro/devkitppc/bin/../lib/gcc/powerpc-eabi/4.8.2/../../../../powerpc-eabi/lib\libc.a(lib_a-envlock.o)
 .data          0x00000000        0x0 c:/devkitpro/devkitppc/bin/../lib/gcc/powerpc-eabi/4.8.2/../../../../powerpc-eabi/lib\libsysbase.a(close.o)
 .bss           0x00000000        0x0 c:/devkitpro/devkitppc/bin/../lib/gcc/powerpc-eabi/4.8.2/../../../../powerpc-eabi/lib\libsysbase.a(close.o)
 .comment       0x00000000       0x23 c:/devkitpro/devkitppc/bin/../lib/gcc/powerpc-eabi/4.8.2/../../../../powerpc-eabi/lib\libsysbase.a(close.o)
 .data          0x00000000        0x0 c:/devkitpro/devkitppc/bin/../lib/gcc/powerpc-eabi/4.8.2/../../../../powerpc-eabi/lib\libsysbase.a(fstat.o)
 .bss           0x00000000        0x0 c:/devkitpro/devkitppc/bin/../lib/gcc/powerpc-eabi/4.8.2/../../../../powerpc-eabi/lib\libsysbase.a(fstat.o)
 .comment       0x00000000       0x23 c:/devkitpro/devkitppc/bin/../lib/gcc/powerpc-eabi/4.8.2/../../../../powerpc-eabi/lib\libsysbase.a(fstat.o)
 .data          0x00000000        0x0 c:/devkitpro/devkitppc/bin/../lib/gcc/powerpc-eabi/4.8.2/../../../../powerpc-eabi/lib\libsysbase.a(isatty.o)
 .bss           0x00000000        0x0 c:/devkitpro/devkitppc/bin/../lib/gcc/powerpc-eabi/4.8.2/../../../../powerpc-eabi/lib\libsysbase.a(isatty.o)
 .comment       0x00000000       0x23 c:/devkitpro/devkitppc/bin/../lib/gcc/powerpc-eabi/4.8.2/../../../../powerpc-eabi/lib\libsysbase.a(isatty.o)
 .data          0x00000000        0x0 c:/devkitpro/devkitppc/bin/../lib/gcc/powerpc-eabi/4.8.2/../../../../powerpc-eabi/lib\libsysbase.a(lseek.o)
 .bss           0x00000000        0x0 c:/devkitpro/devkitppc/bin/../lib/gcc/powerpc-eabi/4.8.2/../../../../powerpc-eabi/lib\libsysbase.a(lseek.o)
 .comment       0x00000000       0x23 c:/devkitpro/devkitppc/bin/../lib/gcc/powerpc-eabi/4.8.2/../../../../powerpc-eabi/lib\libsysbase.a(lseek.o)
 .data          0x00000000        0x0 c:/devkitpro/devkitppc/bin/../lib/gcc/powerpc-eabi/4.8.2/../../../../powerpc-eabi/lib\libsysbase.a(open.o)
 .bss           0x00000000        0x0 c:/devkitpro/devkitppc/bin/../lib/gcc/powerpc-eabi/4.8.2/../../../../powerpc-eabi/lib\libsysbase.a(open.o)
 .comment       0x00000000       0x23 c:/devkitpro/devkitppc/bin/../lib/gcc/powerpc-eabi/4.8.2/../../../../powerpc-eabi/lib\libsysbase.a(open.o)
 .data          0x00000000        0x0 c:/devkitpro/devkitppc/bin/../lib/gcc/powerpc-eabi/4.8.2/../../../../powerpc-eabi/lib\libsysbase.a(read.o)
 .bss           0x00000000        0x0 c:/devkitpro/devkitppc/bin/../lib/gcc/powerpc-eabi/4.8.2/../../../../powerpc-eabi/lib\libsysbase.a(read.o)
 .comment       0x00000000       0x23 c:/devkitpro/devkitppc/bin/../lib/gcc/powerpc-eabi/4.8.2/../../../../powerpc-eabi/lib\libsysbase.a(read.o)
 .data          0x00000000        0x0 c:/devkitpro/devkitppc/bin/../lib/gcc/powerpc-eabi/4.8.2/../../../../powerpc-eabi/lib\libsysbase.a(stat.o)
 .bss           0x00000000        0x0 c:/devkitpro/devkitppc/bin/../lib/gcc/powerpc-eabi/4.8.2/../../../../powerpc-eabi/lib\libsysbase.a(stat.o)
 .comment       0x00000000       0x23 c:/devkitpro/devkitppc/bin/../lib/gcc/powerpc-eabi/4.8.2/../../../../powerpc-eabi/lib\libsysbase.a(stat.o)
 .data          0x00000000        0x0 c:/devkitpro/devkitppc/bin/../lib/gcc/powerpc-eabi/4.8.2/../../../../powerpc-eabi/lib\libsysbase.a(write.o)
 .bss           0x00000000        0x0 c:/devkitpro/devkitppc/bin/../lib/gcc/powerpc-eabi/4.8.2/../../../../powerpc-eabi/lib\libsysbase.a(write.o)
 .comment       0x00000000       0x23 c:/devkitpro/devkitppc/bin/../lib/gcc/powerpc-eabi/4.8.2/../../../../powerpc-eabi/lib\libsysbase.a(write.o)
 .data          0x00000000        0x0 c:/devkitpro/devkitppc/bin/../lib/gcc/powerpc-eabi/4.8.2/../../../../powerpc-eabi/lib\libsysbase.a(flock.o)
 .bss           0x00000000        0x0 c:/devkitpro/devkitppc/bin/../lib/gcc/powerpc-eabi/4.8.2/../../../../powerpc-eabi/lib\libsysbase.a(flock.o)
 .comment       0x00000000       0x23 c:/devkitpro/devkitppc/bin/../lib/gcc/powerpc-eabi/4.8.2/../../../../powerpc-eabi/lib\libsysbase.a(flock.o)
 .data          0x00000000        0x0 c:/devkitpro/devkitppc/bin/../lib/gcc/powerpc-eabi/4.8.2/../../../../powerpc-eabi/lib\libsysbase.a(syscall_support.o)
 .comment       0x00000000       0x23 c:/devkitpro/devkitppc/bin/../lib/gcc/powerpc-eabi/4.8.2/../../../../powerpc-eabi/lib\libsysbase.a(syscall_support.o)
 .data          0x00000000        0x0 c:/devkitpro/devkitppc/bin/../lib/gcc/powerpc-eabi/4.8.2/../../../../powerpc-eabi/lib\libsysbase.a(handle_manager.o)
 .comment       0x00000000       0x23 c:/devkitpro/devkitppc/bin/../lib/gcc/powerpc-eabi/4.8.2/../../../../powerpc-eabi/lib\libsysbase.a(handle_manager.o)
 .data          0x00000000        0x0 c:/devkitpro/devkitppc/bin/../lib/gcc/powerpc-eabi/4.8.2\libgcc.a(_udivdi3.o)
 .bss           0x00000000        0x0 c:/devkitpro/devkitppc/bin/../lib/gcc/powerpc-eabi/4.8.2\libgcc.a(_udivdi3.o)
 .comment       0x00000000       0x23 c:/devkitpro/devkitppc/bin/../lib/gcc/powerpc-eabi/4.8.2\libgcc.a(_udivdi3.o)
 .eh_frame      0x00000000       0x54 c:/devkitpro/devkitppc/bin/../lib/gcc/powerpc-eabi/4.8.2\libgcc.a(_udivdi3.o)
 .data          0x00000000        0x0 c:/devkitpro/devkitppc/bin/../lib/gcc/powerpc-eabi/4.8.2\libgcc.a(_umoddi3.o)
 .bss           0x00000000        0x0 c:/devkitpro/devkitppc/bin/../lib/gcc/powerpc-eabi/4.8.2\libgcc.a(_umoddi3.o)
 .comment       0x00000000       0x23 c:/devkitpro/devkitppc/bin/../lib/gcc/powerpc-eabi/4.8.2\libgcc.a(_umoddi3.o)
 .eh_frame      0x00000000       0x4c c:/devkitpro/devkitppc/bin/../lib/gcc/powerpc-eabi/4.8.2\libgcc.a(_umoddi3.o)

Memory Configuration

Name             Origin             Length             Attributes
*default*        0x00000000         0xffffffff

Linker script and memory map

LOAD cfw_config.o
LOAD entry.o
LOAD main.o
LOAD menu.o
LOAD fs_functions.o
LOAD gx2_functions.o
LOAD os_functions.o
LOAD socket_functions.o
LOAD sys_functions.o
LOAD vpad_functions.o
LOAD fs_utils.o
LOAD sd_fat_devoptab.o
LOAD exception_handler.o
LOAD memory.o
LOAD logger.o
LOAD launch_image.tga.o
LOAD c:/devkitpro/devkitppc/bin/../lib/gcc/powerpc-eabi/4.8.2\libgcc.a
START GROUP
LOAD c:/devkitpro/devkitppc/bin/../lib/gcc/powerpc-eabi/4.8.2/../../../../powerpc-eabi/lib\libsysbase.a
LOAD c:/devkitpro/devkitppc/bin/../lib/gcc/powerpc-eabi/4.8.2/../../../../powerpc-eabi/lib\libc.a
END GROUP
LOAD c:/devkitpro/devkitppc/bin/../lib/gcc/powerpc-eabi/4.8.2\libgcc.a
                0x00802000                . = 0x802000

.text           0x00802000    0x12b80
 *(.text*)
 .text.default_config
                0x00802000       0x28 cfw_config.o
                0x00802000                default_config
 .text.read_config
                0x00802028      0x354 cfw_config.o
                0x00802028                read_config
 .text.write_config
                0x0080237c      0x12c cfw_config.o
                0x0080237c                write_config
 .text.__entry_menu
                0x008024a8        0x4 entry.o
                0x008024a8                __entry_menu
 .text.Menu_Main
                0x008024ac      0x658 main.o
                0x008024ac                Menu_Main
 .text.console_print_pos.constprop.0
                0x00802b04      0x120 menu.o
 .text.console_print_pos.constprop.1
                0x00802c24      0x11c menu.o
 .text.ShowMenu
                0x00802d40      0x650 menu.o
                0x00802d40                ShowMenu
 .text.InitFSFunctionPointers
                0x00803390      0xee0 fs_functions.o
                0x00803390                InitFSFunctionPointers
 .text.InitOSFunctionPointers
                0x00804270     0x11c8 os_functions.o
                0x00804270                InitOSFunctionPointers
 .text.InitSysFunctionPointers
                0x00805438      0x2a8 sys_functions.o
                0x00805438                InitSysFunctionPointers
 .text.InitVPadFunctionPointers
                0x008056e0      0x2c0 vpad_functions.o
                0x008056e0                InitVPadFunctionPointers
 .text.MountFS  0x008059a0      0x154 fs_utils.o
                0x008059a0                MountFS
 .text.UmountFS
                0x00805af4       0x14 fs_utils.o
                0x00805af4                UmountFS
 .text.CreateSubfolder
                0x00805b08      0x280 fs_utils.o
                0x00805b08                CreateSubfolder
 .text.sd_fat_close_r
                0x00805d88       0xc4 sd_fat_devoptab.o
 .text.sd_fat_seek_r
                0x00805e4c      0x18c sd_fat_devoptab.o
 .text.sd_fat_ftruncate_r
                0x00805fd8       0xc4 sd_fat_devoptab.o
 .text.sd_fat_fsync_r
                0x0080609c       0xc4 sd_fat_devoptab.o
 .text.sd_fat_link_r
                0x00806160       0x10 sd_fat_devoptab.o
 .text.sd_fat_dirclose_r
                0x00806170       0xc4 sd_fat_devoptab.o
 .text.sd_fat_dirreset_r
                0x00806234       0xc4 sd_fat_devoptab.o
 .text.sd_fat_dirnext_r
                0x008062f8      0x19c sd_fat_devoptab.o
 .text.sd_fat_fstat_r
                0x00806494      0x14c sd_fat_devoptab.o
 .text.sd_fat_read_r
                0x008065e0      0x268 sd_fat_devoptab.o
 .text.sd_fat_write_r
                0x00806848      0x2a0 sd_fat_devoptab.o
 .text.sd_fat_rename_r
                0x00806ae8      0x29c sd_fat_devoptab.o
 .text.sd_fat_unlink_r
                0x00806d84      0x208 sd_fat_devoptab.o
 .text.sd_fat_mkdir_r
                0x00806f8c      0x208 sd_fat_devoptab.o
 .text.sd_fat_chdir_r
                0x00807194      0x208 sd_fat_devoptab.o
 .text.sd_fat_diropen_r
                0x0080739c      0x228 sd_fat_devoptab.o
 .text.sd_fat_statvfs_r
                0x008075c4      0x274 sd_fat_devoptab.o
 .text.sd_fat_open_r
                0x00807838      0x348 sd_fat_devoptab.o
 .text.sd_fat_stat_r
                0x00807b80      0x2bc sd_fat_devoptab.o
 .text.mount_sd_fat
                0x00807e3c      0x3c0 sd_fat_devoptab.o
                0x00807e3c                mount_sd_fat
 .text.unmount_sd_fat
                0x008081fc      0x1d0 sd_fat_devoptab.o
                0x008081fc                unmount_sd_fat
 .text.__wrap_malloc
                0x008083cc       0x14 memory.o
                0x008083cc                __wrap_malloc
 .text.__wrap_memalign
                0x008083e0       0x2c memory.o
                0x008083e0                __wrap_memalign
 .text.__wrap_free
                0x0080840c       0x1c memory.o
                0x0080840c                __wrap_free
 .text.__wrap__malloc_r
                0x00808428       0x18 memory.o
                0x00808428                __wrap__malloc_r
 .text.__wrap__calloc_r
                0x00808440       0x60 memory.o
                0x00808440                __wrap__calloc_r
 .text.__wrap__free_r
                0x008084a0       0x1c memory.o
                0x008084a0                __wrap__free_r
 .text.__wrap__realloc_r
                0x008084bc       0xa8 memory.o
                0x008084bc                __wrap__realloc_r
 .text          0x00808564      0x2f8 c:/devkitpro/devkitppc/bin/../lib/gcc/powerpc-eabi/4.8.2/../../../../powerpc-eabi/lib\libsysbase.a(iosupport.o)
                0x00808564                setDefaultDevice
                0x0080857c                FindDevice
                0x008086a0                RemoveDevice
                0x008086f0                AddDevice
                0x0080880c                GetDeviceOpTab
 .text          0x0080885c       0x9c c:/devkitpro/devkitppc/bin/../lib/gcc/powerpc-eabi/4.8.2/../../../../powerpc-eabi/lib\libsysbase.a(mkdir.o)
                0x0080885c                mkdir
 .text.atoi     0x008088f8        0xc c:/devkitpro/devkitppc/bin/../lib/gcc/powerpc-eabi/4.8.2/../../../../powerpc-eabi/lib\libc.a(lib_a-atoi.o)
                0x008088f8                atoi
 .text.__errno  0x00808904        0xc c:/devkitpro/devkitppc/bin/../lib/gcc/powerpc-eabi/4.8.2/../../../../powerpc-eabi/lib\libc.a(lib_a-errno.o)
                0x00808904                __errno
 .text._fclose_r
                0x00808910      0x184 c:/devkitpro/devkitppc/bin/../lib/gcc/powerpc-eabi/4.8.2/../../../../powerpc-eabi/lib\libc.a(lib_a-fclose.o)
                0x00808910                _fclose_r
 .text.fclose   0x00808a94       0x10 c:/devkitpro/devkitppc/bin/../lib/gcc/powerpc-eabi/4.8.2/../../../../powerpc-eabi/lib\libc.a(lib_a-fclose.o)
                0x00808a94                fclose
 .text.__sflush_r
                0x00808aa4      0x2b8 c:/devkitpro/devkitppc/bin/../lib/gcc/powerpc-eabi/4.8.2/../../../../powerpc-eabi/lib\libc.a(lib_a-fflush.o)
                0x00808aa4                __sflush_r
 .text._fflush_r
                0x00808d5c       0xb8 c:/devkitpro/devkitppc/bin/../lib/gcc/powerpc-eabi/4.8.2/../../../../powerpc-eabi/lib\libc.a(lib_a-fflush.o)
                0x00808d5c                _fflush_r
 .text.fflush   0x00808e14       0x28 c:/devkitpro/devkitppc/bin/../lib/gcc/powerpc-eabi/4.8.2/../../../../powerpc-eabi/lib\libc.a(lib_a-fflush.o)
                0x00808e14                fflush
 .text._fgets_r
                0x00808e3c      0x1ac c:/devkitpro/devkitppc/bin/../lib/gcc/powerpc-eabi/4.8.2/../../../../powerpc-eabi/lib\libc.a(lib_a-fgets.o)
                0x00808e3c                _fgets_r
 .text.fgets    0x00808fe8       0x20 c:/devkitpro/devkitppc/bin/../lib/gcc/powerpc-eabi/4.8.2/../../../../powerpc-eabi/lib\libc.a(lib_a-fgets.o)
                0x00808fe8                fgets
 .text._cleanup_r
                0x00809008        0xc c:/devkitpro/devkitppc/bin/../lib/gcc/powerpc-eabi/4.8.2/../../../../powerpc-eabi/lib\libc.a(lib_a-findfp.o)
                0x00809008                _cleanup_r
 .text.std.isra.0
                0x00809014       0x9c c:/devkitpro/devkitppc/bin/../lib/gcc/powerpc-eabi/4.8.2/../../../../powerpc-eabi/lib\libc.a(lib_a-findfp.o)
 .text.__sfmoreglue
                0x008090b0       0x70 c:/devkitpro/devkitppc/bin/../lib/gcc/powerpc-eabi/4.8.2/../../../../powerpc-eabi/lib\libc.a(lib_a-findfp.o)
                0x008090b0                __sfmoreglue
 .text.__sfp_lock_acquire
                0x00809120       0x48 c:/devkitpro/devkitppc/bin/../lib/gcc/powerpc-eabi/4.8.2/../../../../powerpc-eabi/lib\libc.a(lib_a-findfp.o)
                0x00809120                __sfp_lock_acquire
 .text.__sfp_lock_release
                0x00809168        0xc c:/devkitpro/devkitppc/bin/../lib/gcc/powerpc-eabi/4.8.2/../../../../powerpc-eabi/lib\libc.a(lib_a-findfp.o)
                0x00809168                __sfp_lock_release
 .text.__sinit_lock_acquire
                0x00809174       0x48 c:/devkitpro/devkitppc/bin/../lib/gcc/powerpc-eabi/4.8.2/../../../../powerpc-eabi/lib\libc.a(lib_a-findfp.o)
                0x00809174                __sinit_lock_acquire
 .text.__sinit  0x008091bc       0x98 c:/devkitpro/devkitppc/bin/../lib/gcc/powerpc-eabi/4.8.2/../../../../powerpc-eabi/lib\libc.a(lib_a-findfp.o)
                0x008091bc                __sinit
 .text.__sfp    0x00809254      0x154 c:/devkitpro/devkitppc/bin/../lib/gcc/powerpc-eabi/4.8.2/../../../../powerpc-eabi/lib\libc.a(lib_a-findfp.o)
                0x00809254                __sfp
 .text._fopen_r
                0x008093a8      0x188 c:/devkitpro/devkitppc/bin/../lib/gcc/powerpc-eabi/4.8.2/../../../../powerpc-eabi/lib\libc.a(lib_a-fopen.o)
                0x008093a8                _fopen_r
 .text.fopen    0x00809530       0x18 c:/devkitpro/devkitppc/bin/../lib/gcc/powerpc-eabi/4.8.2/../../../../powerpc-eabi/lib\libc.a(lib_a-fopen.o)
                0x00809530                fopen
 .text.fprintf  0x00809548       0x94 c:/devkitpro/devkitppc/bin/../lib/gcc/powerpc-eabi/4.8.2/../../../../powerpc-eabi/lib\libc.a(lib_a-fprintf.o)
                0x00809548                fprintf
 .text._fread_r
                0x008095dc      0x360 c:/devkitpro/devkitppc/bin/../lib/gcc/powerpc-eabi/4.8.2/../../../../powerpc-eabi/lib\libc.a(lib_a-fread.o)
                0x008095dc                _fread_r
 .text.fread    0x0080993c       0x28 c:/devkitpro/devkitppc/bin/../lib/gcc/powerpc-eabi/4.8.2/../../../../powerpc-eabi/lib\libc.a(lib_a-fread.o)
                0x0080993c                fread
 .text._fseek_r
                0x00809964        0x4 c:/devkitpro/devkitppc/bin/../lib/gcc/powerpc-eabi/4.8.2/../../../../powerpc-eabi/lib\libc.a(lib_a-fseek.o)
                0x00809964                _fseek_r
 .text.fseek    0x00809968       0x10 c:/devkitpro/devkitppc/bin/../lib/gcc/powerpc-eabi/4.8.2/../../../../powerpc-eabi/lib\libc.a(lib_a-fseek.o)
                0x00809968                fseek
 .text._fseeko_r
                0x00809978      0x66c c:/devkitpro/devkitppc/bin/../lib/gcc/powerpc-eabi/4.8.2/../../../../powerpc-eabi/lib\libc.a(lib_a-fseeko.o)
                0x00809978                _fseeko_r
 .text.ftell    0x00809fe4       0x54 c:/devkitpro/devkitppc/bin/../lib/gcc/powerpc-eabi/4.8.2/../../../../powerpc-eabi/lib\libc.a(lib_a-ftell.o)
                0x00809fe4                ftell
 .text._ftello_r
                0x0080a038      0x1ec c:/devkitpro/devkitppc/bin/../lib/gcc/powerpc-eabi/4.8.2/../../../../powerpc-eabi/lib\libc.a(lib_a-ftello.o)
                0x0080a038                _ftello_r
 .text._fwalk   0x0080a224       0xd8 c:/devkitpro/devkitppc/bin/../lib/gcc/powerpc-eabi/4.8.2/../../../../powerpc-eabi/lib\libc.a(lib_a-fwalk.o)
                0x0080a224                _fwalk
 .text._fwalk_reent
                0x0080a2fc       0xec c:/devkitpro/devkitppc/bin/../lib/gcc/powerpc-eabi/4.8.2/../../../../powerpc-eabi/lib\libc.a(lib_a-fwalk.o)
                0x0080a2fc                _fwalk_reent
 .text._fwrite_r
                0x0080a3e8      0x17c c:/devkitpro/devkitppc/bin/../lib/gcc/powerpc-eabi/4.8.2/../../../../powerpc-eabi/lib\libc.a(lib_a-fwrite.o)
                0x0080a3e8                _fwrite_r
 .text.fwrite   0x0080a564       0x28 c:/devkitpro/devkitppc/bin/../lib/gcc/powerpc-eabi/4.8.2/../../../../powerpc-eabi/lib\libc.a(lib_a-fwrite.o)
                0x0080a564                fwrite
 .text.__smakebuf_r
                0x0080a58c      0x1cc c:/devkitpro/devkitppc/bin/../lib/gcc/powerpc-eabi/4.8.2/../../../../powerpc-eabi/lib\libc.a(lib_a-makebuf.o)
                0x0080a58c                __smakebuf_r
 .text.memchr   0x0080a758       0xf0 c:/devkitpro/devkitppc/bin/../lib/gcc/powerpc-eabi/4.8.2/../../../../powerpc-eabi/lib\libc.a(lib_a-memchr.o)
                0x0080a758                memchr
 .text.memcmp   0x0080a848       0x84 c:/devkitpro/devkitppc/bin/../lib/gcc/powerpc-eabi/4.8.2/../../../../powerpc-eabi/lib\libc.a(lib_a-memcmp.o)
                0x0080a848                memcmp
 .text.memcpy   0x0080a8cc       0xf0 c:/devkitpro/devkitppc/bin/../lib/gcc/powerpc-eabi/4.8.2/../../../../powerpc-eabi/lib\libc.a(lib_a-memcpy.o)
                0x0080a8cc                memcpy
 .text.memset   0x0080a9bc      0x114 c:/devkitpro/devkitppc/bin/../lib/gcc/powerpc-eabi/4.8.2/../../../../powerpc-eabi/lib\libc.a(lib_a-memset.o)
                0x0080a9bc                memset
 .text.lflush   0x0080aad0       0x1c c:/devkitpro/devkitppc/bin/../lib/gcc/powerpc-eabi/4.8.2/../../../../powerpc-eabi/lib\libc.a(lib_a-refill.o)
 .text.__srefill_r
                0x0080aaec      0x25c c:/devkitpro/devkitppc/bin/../lib/gcc/powerpc-eabi/4.8.2/../../../../powerpc-eabi/lib\libc.a(lib_a-refill.o)
                0x0080aaec                __srefill_r
 .text.snprintf
                0x0080ad48      0x110 c:/devkitpro/devkitppc/bin/../lib/gcc/powerpc-eabi/4.8.2/../../../../powerpc-eabi/lib\libc.a(lib_a-snprintf.o)
                0x0080ad48                snprintf
 .text.__sread  0x0080ae58       0x78 c:/devkitpro/devkitppc/bin/../lib/gcc/powerpc-eabi/4.8.2/../../../../powerpc-eabi/lib\libc.a(lib_a-stdio.o)
                0x0080ae58                __sread
 .text.__swrite
                0x0080aed0       0x8c c:/devkitpro/devkitppc/bin/../lib/gcc/powerpc-eabi/4.8.2/../../../../powerpc-eabi/lib\libc.a(lib_a-stdio.o)
                0x0080aed0                __swrite
 .text.__sseek  0x0080af5c       0x70 c:/devkitpro/devkitppc/bin/../lib/gcc/powerpc-eabi/4.8.2/../../../../powerpc-eabi/lib\libc.a(lib_a-stdio.o)
                0x0080af5c                __sseek
 .text.__sclose
                0x0080afcc        0x8 c:/devkitpro/devkitppc/bin/../lib/gcc/powerpc-eabi/4.8.2/../../../../powerpc-eabi/lib\libc.a(lib_a-stdio.o)
                0x0080afcc                __sclose
 .text.strchr   0x0080afd4      0x180 c:/devkitpro/devkitppc/bin/../lib/gcc/powerpc-eabi/4.8.2/../../../../powerpc-eabi/lib\libc.a(lib_a-strchr.o)
                0x0080afd4                strchr
 .text.strcmp   0x0080b154       0xa8 c:/devkitpro/devkitppc/bin/../lib/gcc/powerpc-eabi/4.8.2/../../../../powerpc-eabi/lib\libc.a(lib_a-strcmp.o)
                0x0080b154                strcmp
 .text.strcpy   0x0080b1fc       0x70 c:/devkitpro/devkitppc/bin/../lib/gcc/powerpc-eabi/4.8.2/../../../../powerpc-eabi/lib\libc.a(lib_a-strcpy.o)
                0x0080b1fc                strcpy
 .text.strlen   0x0080b26c       0x9c c:/devkitpro/devkitppc/bin/../lib/gcc/powerpc-eabi/4.8.2/../../../../powerpc-eabi/lib\libc.a(lib_a-strlen.o)
                0x0080b26c                strlen
 .text.strncmp  0x0080b308      0x140 c:/devkitpro/devkitppc/bin/../lib/gcc/powerpc-eabi/4.8.2/../../../../powerpc-eabi/lib\libc.a(lib_a-strncmp.o)
                0x0080b308                strncmp
 .text.strncpy  0x0080b448       0xe0 c:/devkitpro/devkitppc/bin/../lib/gcc/powerpc-eabi/4.8.2/../../../../powerpc-eabi/lib\libc.a(lib_a-strncpy.o)
                0x0080b448                strncpy
 .text.strrchr  0x0080b528       0x78 c:/devkitpro/devkitppc/bin/../lib/gcc/powerpc-eabi/4.8.2/../../../../powerpc-eabi/lib\libc.a(lib_a-strrchr.o)
                0x0080b528                strrchr
 .text.strtok   0x0080b5a0       0x14 c:/devkitpro/devkitppc/bin/../lib/gcc/powerpc-eabi/4.8.2/../../../../powerpc-eabi/lib\libc.a(lib_a-strtok.o)
                0x0080b5a0                strtok
 .text.__strtok_r
                0x0080b5b4       0xd0 c:/devkitpro/devkitppc/bin/../lib/gcc/powerpc-eabi/4.8.2/../../../../powerpc-eabi/lib\libc.a(lib_a-strtok_r.o)
                0x0080b5b4                __strtok_r
 .text._strtol_r
                0x0080b684      0x21c c:/devkitpro/devkitppc/bin/../lib/gcc/powerpc-eabi/4.8.2/../../../../powerpc-eabi/lib\libc.a(lib_a-strtol.o)
                0x0080b684                _strtol_r
 .text.strtol   0x0080b8a0       0x20 c:/devkitpro/devkitppc/bin/../lib/gcc/powerpc-eabi/4.8.2/../../../../powerpc-eabi/lib\libc.a(lib_a-strtol.o)
                0x0080b8a0                strtol
 .text._svfprintf_r
                0x0080b8c0     0x24a0 c:/devkitpro/devkitppc/bin/../lib/gcc/powerpc-eabi/4.8.2/../../../../powerpc-eabi/lib\libc.a(lib_a-svfprintf.o)
                0x0080b8c0                _svfprintf_r
 .text.stat     0x0080dd60       0x18 c:/devkitpro/devkitppc/bin/../lib/gcc/powerpc-eabi/4.8.2/../../../../powerpc-eabi/lib\libc.a(lib_a-sysstat.o)
                0x0080dd60                stat
 .text._vasprintf_r
                0x0080dd78       0x74 c:/devkitpro/devkitppc/bin/../lib/gcc/powerpc-eabi/4.8.2/../../../../powerpc-eabi/lib\libc.a(lib_a-vasprintf.o)
                0x0080dd78                _vasprintf_r
 .text.vasprintf
                0x0080ddec       0x20 c:/devkitpro/devkitppc/bin/../lib/gcc/powerpc-eabi/4.8.2/../../../../powerpc-eabi/lib\libc.a(lib_a-vasprintf.o)
                0x0080ddec                vasprintf
 .text._vfprintf_r
                0x0080de0c     0x2534 c:/devkitpro/devkitppc/bin/../lib/gcc/powerpc-eabi/4.8.2/../../../../powerpc-eabi/lib\libc.a(lib_a-vfprintf.o)
                0x0080de0c                _vfprintf_r
 .text.__sbprintf
                0x00810340       0xf8 c:/devkitpro/devkitppc/bin/../lib/gcc/powerpc-eabi/4.8.2/../../../../powerpc-eabi/lib\libc.a(lib_a-vfprintf.o)
 .text._wcrtomb_r
                0x00810438       0xbc c:/devkitpro/devkitppc/bin/../lib/gcc/powerpc-eabi/4.8.2/../../../../powerpc-eabi/lib\libc.a(lib_a-wcrtomb.o)
                0x00810438                _wcrtomb_r
 .text._wcsrtombs_r
                0x008104f4       0x14 c:/devkitpro/devkitppc/bin/../lib/gcc/powerpc-eabi/4.8.2/../../../../powerpc-eabi/lib\libc.a(lib_a-wcsrtombs.o)
                0x008104f4                _wcsrtombs_r
 .text.__utf8_wctomb
                0x00810508       0xfc c:/devkitpro/devkitppc/bin/../lib/gcc/powerpc-eabi/4.8.2/../../../../powerpc-eabi/lib\libc.a(lib_a-wctomb_r.o)
                0x00810508                __utf8_wctomb
 .text.__swsetup_r
                0x00810604      0x18c c:/devkitpro/devkitppc/bin/../lib/gcc/powerpc-eabi/4.8.2/../../../../powerpc-eabi/lib\libc.a(lib_a-wsetup.o)
                0x00810604                __swsetup_r
 .text.quorem   0x00810790      0x214 c:/devkitpro/devkitppc/bin/../lib/gcc/powerpc-eabi/4.8.2/../../../../powerpc-eabi/lib\libc.a(lib_a-dtoa.o)
 .text._dtoa_r  0x008109a4     0x1220 c:/devkitpro/devkitppc/bin/../lib/gcc/powerpc-eabi/4.8.2/../../../../powerpc-eabi/lib\libc.a(lib_a-dtoa.o)
                0x008109a4                _dtoa_r
 .text.__sflags
                0x00811bc4       0xac c:/devkitpro/devkitppc/bin/../lib/gcc/powerpc-eabi/4.8.2/../../../../powerpc-eabi/lib\libc.a(lib_a-flags.o)
                0x00811bc4                __sflags
 .text.__sfvwrite_r
                0x00811c70      0x548 c:/devkitpro/devkitppc/bin/../lib/gcc/powerpc-eabi/4.8.2/../../../../powerpc-eabi/lib\libc.a(lib_a-fvwrite.o)
                0x00811c70                __sfvwrite_r
 .text.__locale_charset
                0x008121b8        0xc c:/devkitpro/devkitppc/bin/../lib/gcc/powerpc-eabi/4.8.2/../../../../powerpc-eabi/lib\libc.a(lib_a-locale.o)
                0x008121b8                __locale_charset
 .text.__locale_mb_cur_max
                0x008121c4        0xc c:/devkitpro/devkitppc/bin/../lib/gcc/powerpc-eabi/4.8.2/../../../../powerpc-eabi/lib\libc.a(lib_a-locale.o)
                0x008121c4                __locale_mb_cur_max
 .text._localeconv_r
                0x008121d0        0xc c:/devkitpro/devkitppc/bin/../lib/gcc/powerpc-eabi/4.8.2/../../../../powerpc-eabi/lib\libc.a(lib_a-locale.o)
                0x008121d0                _localeconv_r
 .text.__utf8_mbtowc
                0x008121dc      0x324 c:/devkitpro/devkitppc/bin/../lib/gcc/powerpc-eabi/4.8.2/../../../../powerpc-eabi/lib\libc.a(lib_a-mbtowc_r.o)
                0x008121dc                __utf8_mbtowc
 .text.memmove  0x00812500      0x138 c:/devkitpro/devkitppc/bin/../lib/gcc/powerpc-eabi/4.8.2/../../../../powerpc-eabi/lib\libc.a(lib_a-memmove.o)
                0x00812500                memmove
 .text._Balloc  0x00812638       0xbc c:/devkitpro/devkitppc/bin/../lib/gcc/powerpc-eabi/4.8.2/../../../../powerpc-eabi/lib\libc.a(lib_a-mprec.o)
                0x00812638                _Balloc
 .text._Bfree   0x008126f4       0x24 c:/devkitpro/devkitppc/bin/../lib/gcc/powerpc-eabi/4.8.2/../../../../powerpc-eabi/lib\libc.a(lib_a-mprec.o)
                0x008126f4                _Bfree
 .text.__multadd
                0x00812718      0x120 c:/devkitpro/devkitppc/bin/../lib/gcc/powerpc-eabi/4.8.2/../../../../powerpc-eabi/lib\libc.a(lib_a-mprec.o)
                0x00812718                __multadd
 .text.__hi0bits
                0x00812838       0x70 c:/devkitpro/devkitppc/bin/../lib/gcc/powerpc-eabi/4.8.2/../../../../powerpc-eabi/lib\libc.a(lib_a-mprec.o)
                0x00812838                __hi0bits
 .text.__lo0bits
                0x008128a8       0xb4 c:/devkitpro/devkitppc/bin/../lib/gcc/powerpc-eabi/4.8.2/../../../../powerpc-eabi/lib\libc.a(lib_a-mprec.o)
                0x008128a8                __lo0bits
 .text.__i2b    0x0081295c       0x3c c:/devkitpro/devkitppc/bin/../lib/gcc/powerpc-eabi/4.8.2/../../../../powerpc-eabi/lib\libc.a(lib_a-mprec.o)
                0x0081295c                __i2b
 .text.__multiply
                0x00812998      0x228 c:/devkitpro/devkitppc/bin/../lib/gcc/powerpc-eabi/4.8.2/../../../../powerpc-eabi/lib\libc.a(lib_a-mprec.o)
                0x00812998                __multiply
 .text.__pow5mult
                0x00812bc0      0x154 c:/devkitpro/devkitppc/bin/../lib/gcc/powerpc-eabi/4.8.2/../../../../powerpc-eabi/lib\libc.a(lib_a-mprec.o)
                0x00812bc0                __pow5mult
 .text.__lshift
                0x00812d14      0x15c c:/devkitpro/devkitppc/bin/../lib/gcc/powerpc-eabi/4.8.2/../../../../powerpc-eabi/lib\libc.a(lib_a-mprec.o)
                0x00812d14                __lshift
 .text.__mcmp   0x00812e70       0x60 c:/devkitpro/devkitppc/bin/../lib/gcc/powerpc-eabi/4.8.2/../../../../powerpc-eabi/lib\libc.a(lib_a-mprec.o)
                0x00812e70                __mcmp
 .text.__mdiff  0x00812ed0      0x1b8 c:/devkitpro/devkitppc/bin/../lib/gcc/powerpc-eabi/4.8.2/../../../../powerpc-eabi/lib\libc.a(lib_a-mprec.o)
                0x00812ed0                __mdiff
 .text.__d2b    0x00813088      0x188 c:/devkitpro/devkitppc/bin/../lib/gcc/powerpc-eabi/4.8.2/../../../../powerpc-eabi/lib\libc.a(lib_a-mprec.o)
                0x00813088                __d2b
 .text.__fpclassifyd
                0x00813210       0x94 c:/devkitpro/devkitppc/bin/../lib/gcc/powerpc-eabi/4.8.2/../../../../powerpc-eabi/lib\libc.a(lib_a-s_fpclassify.o)
                0x00813210                __fpclassifyd
 .text.__ssprint_r
                0x008132a4      0x264 c:/devkitpro/devkitppc/bin/../lib/gcc/powerpc-eabi/4.8.2/../../../../powerpc-eabi/lib\libc.a(lib_a-svfiprintf.o)
                0x008132a4                __ssprint_r
 .text.__sprint_r.part.0
                0x00813508      0x12c c:/devkitpro/devkitppc/bin/../lib/gcc/powerpc-eabi/4.8.2/../../../../powerpc-eabi/lib\libc.a(lib_a-vfiprintf.o)
 .text.__sprint_r
                0x00813634       0x1c c:/devkitpro/devkitppc/bin/../lib/gcc/powerpc-eabi/4.8.2/../../../../powerpc-eabi/lib\libc.a(lib_a-vfiprintf.o)
                0x00813634                __sprint_r
 .text._wcsnrtombs_r
                0x00813650      0x214 c:/devkitpro/devkitppc/bin/../lib/gcc/powerpc-eabi/4.8.2/../../../../powerpc-eabi/lib\libc.a(lib_a-wcsnrtombs.o)
                0x00813650                _wcsnrtombs_r
 .text._fputwc_r
                0x00813864      0x1c8 c:/devkitpro/devkitppc/bin/../lib/gcc/powerpc-eabi/4.8.2/../../../../powerpc-eabi/lib\libc.a(lib_a-fputwc.o)
                0x00813864                _fputwc_r
 .text.__swbuf_r
                0x00813a2c      0x1a8 c:/devkitpro/devkitppc/bin/../lib/gcc/powerpc-eabi/4.8.2/../../../../powerpc-eabi/lib\libc.a(lib_a-wbuf.o)
                0x00813a2c                __swbuf_r
 .text          0x00813bd4       0xa0 c:/devkitpro/devkitppc/bin/../lib/gcc/powerpc-eabi/4.8.2/../../../../powerpc-eabi/lib\libsysbase.a(close.o)
                0x00813bd4                _close_r
 .text          0x00813c74       0xb0 c:/devkitpro/devkitppc/bin/../lib/gcc/powerpc-eabi/4.8.2/../../../../powerpc-eabi/lib\libsysbase.a(fstat.o)
                0x00813c74                _fstat_r
 .text          0x00813d24        0x8 c:/devkitpro/devkitppc/bin/../lib/gcc/powerpc-eabi/4.8.2/../../../../powerpc-eabi/lib\libsysbase.a(isatty.o)
                0x00813d24                _isatty_r
 .text          0x00813d2c       0xc0 c:/devkitpro/devkitppc/bin/../lib/gcc/powerpc-eabi/4.8.2/../../../../powerpc-eabi/lib\libsysbase.a(lseek.o)
                0x00813d2c                _lseek_r
 .text          0x00813dec      0x14c c:/devkitpro/devkitppc/bin/../lib/gcc/powerpc-eabi/4.8.2/../../../../powerpc-eabi/lib\libsysbase.a(open.o)
                0x00813dec                _open_r
 .text          0x00813f38       0xb0 c:/devkitpro/devkitppc/bin/../lib/gcc/powerpc-eabi/4.8.2/../../../../powerpc-eabi/lib\libsysbase.a(read.o)
                0x00813f38                _read_r
 .text          0x00813fe8       0xa4 c:/devkitpro/devkitppc/bin/../lib/gcc/powerpc-eabi/4.8.2/../../../../powerpc-eabi/lib\libsysbase.a(stat.o)
                0x00813fe8                _stat_r
 .text          0x0081408c       0xb8 c:/devkitpro/devkitppc/bin/../lib/gcc/powerpc-eabi/4.8.2/../../../../powerpc-eabi/lib\libsysbase.a(write.o)
                0x0081408c                _write_r
 .text          0x00814144       0x4c c:/devkitpro/devkitppc/bin/../lib/gcc/powerpc-eabi/4.8.2/../../../../powerpc-eabi/lib\libsysbase.a(flock.o)
                0x00814144                __flockfile
                0x00814188                __funlockfile
 .text          0x00814190       0xb0 c:/devkitpro/devkitppc/bin/../lib/gcc/powerpc-eabi/4.8.2/../../../../powerpc-eabi/lib\libsysbase.a(syscall_support.o)
                0x00814190                __libc_lock_init
                0x008141b0                __libc_lock_close
                0x008141d0                __libc_lock_release
                0x008141f0                __libc_lock_acquire
                0x00814210                __malloc_lock
                0x00814228                __malloc_unlock
 .text          0x00814240      0x174 c:/devkitpro/devkitppc/bin/../lib/gcc/powerpc-eabi/4.8.2/../../../../powerpc-eabi/lib\libsysbase.a(handle_manager.o)
                0x00814240                __release_handle
                0x0081429c                __alloc_handle
                0x0081438c                __get_handle
 .text          0x008143b4      0x414 c:/devkitpro/devkitppc/bin/../lib/gcc/powerpc-eabi/4.8.2\libgcc.a(_udivdi3.o)
                0x008143b4                __udivdi3
 .text          0x008147c8      0x3b8 c:/devkitpro/devkitppc/bin/../lib/gcc/powerpc-eabi/4.8.2\libgcc.a(_umoddi3.o)
                0x008147c8                __umoddi3

.rodata         0x00814b80   0x1c1cec
 *(.rodata*)
 .rodata.str1.4
                0x00814b80      0x102 cfw_config.o
 *fill*         0x00814c82        0x2 
 .rodata.ios_kernel_bin
                0x00814c84     0x1bb4 main.o
 .rodata.ios_usb_bin
                0x00816838       0x6c main.o
 .rodata.second_chain
                0x008168a4       0xc8 main.o
 .rodata.ios_bsp_bin
                0x0081696c      0x4e7 main.o
 *fill*         0x00816e53        0x1 
 .rodata.str1.4
                0x00816e54       0x45 main.o
                                 0x4b (size before relaxing)
 *fill*         0x00816e99        0x3 
 .rodata.ios_fs_bin
                0x00816e9c     0x1cd0 main.o
 .rodata.ios_mcp_bin
                0x00818b6c     0x2960 main.o
 .rodata.final_chain
                0x0081b4cc      0x348 main.o
 .rodata.ShowMenu
                0x0081b814       0x1c menu.o
 .rodata.cst4   0x0081b830        0x8 menu.o
 .rodata.str1.4
                0x0081b838      0x2b7 menu.o
                                0x2c3 (size before relaxing)
 *fill*         0x0081baef        0x1 
 .rodata.str1.4
                0x0081baf0      0x79e fs_functions.o
 *fill*         0x0081c28e        0x2 
 .rodata.str1.4
                0x0081c290      0xb02 os_functions.o
 *fill*         0x0081cd92        0x2 
 .rodata.str1.4
                0x0081cd94      0x16f sys_functions.o
 *fill*         0x0081cf03        0x1 
 .rodata.str1.4
                0x0081cf04      0x17a vpad_functions.o
 *fill*         0x0081d07e        0x2 
 .rodata.str1.4
                0x0081d080        0x3 fs_utils.o
 *fill*         0x0081d083        0x1 
 .rodata.devops_sd_fat
                0x0081d084       0x64 sd_fat_devoptab.o
 .rodata.str1.4
                0x0081d0e8        0xe sd_fat_devoptab.o
                                 0x16 (size before relaxing)
 *fill*         0x0081d0f6        0xa 
 .rodata        0x0081d100   0x1b9030 launch_image.tga.o
                0x0081d100                launch_image_tga
                0x009d612c                launch_image_tga_size
                0x009d612c                launch_image_tga_end
 .rodata        0x009d6130       0x64 c:/devkitpro/devkitppc/bin/../lib/gcc/powerpc-eabi/4.8.2/../../../../powerpc-eabi/lib\libsysbase.a(iosupport.o)
                0x009d6130                dotab_stdnull
 .rodata.str1.4
                0x009d6194        0x8 c:/devkitpro/devkitppc/bin/../lib/gcc/powerpc-eabi/4.8.2/../../../../powerpc-eabi/lib\libsysbase.a(iosupport.o)
 .rodata.str1.4
                0x009d619c        0x2 c:/devkitpro/devkitppc/bin/../lib/gcc/powerpc-eabi/4.8.2/../../../../powerpc-eabi/lib\libc.a(lib_a-impure.o)
 *fill*         0x009d619e        0x2 
 .rodata._svfprintf_r
                0x009d61a0      0x164 c:/devkitpro/devkitppc/bin/../lib/gcc/powerpc-eabi/4.8.2/../../../../powerpc-eabi/lib\libc.a(lib_a-svfprintf.o)
 .rodata.blanks.4183
                0x009d6304       0x10 c:/devkitpro/devkitppc/bin/../lib/gcc/powerpc-eabi/4.8.2/../../../../powerpc-eabi/lib\libc.a(lib_a-svfprintf.o)
 *fill*         0x009d6314        0x4 
 .rodata.cst8   0x009d6318        0x8 c:/devkitpro/devkitppc/bin/../lib/gcc/powerpc-eabi/4.8.2/../../../../powerpc-eabi/lib\libc.a(lib_a-svfprintf.o)
 .rodata.str1.4
                0x009d6320       0x42 c:/devkitpro/devkitppc/bin/../lib/gcc/powerpc-eabi/4.8.2/../../../../powerpc-eabi/lib\libc.a(lib_a-svfprintf.o)
 *fill*         0x009d6362        0x2 
 .rodata.zeroes.4184
                0x009d6364       0x10 c:/devkitpro/devkitppc/bin/../lib/gcc/powerpc-eabi/4.8.2/../../../../powerpc-eabi/lib\libc.a(lib_a-svfprintf.o)
 .rodata._vfprintf_r
                0x009d6374      0x164 c:/devkitpro/devkitppc/bin/../lib/gcc/powerpc-eabi/4.8.2/../../../../powerpc-eabi/lib\libc.a(lib_a-vfprintf.o)
 .rodata.zeroes.4199
                0x009d64d8       0x10 c:/devkitpro/devkitppc/bin/../lib/gcc/powerpc-eabi/4.8.2/../../../../powerpc-eabi/lib\libc.a(lib_a-vfprintf.o)
 .rodata.cst8   0x00000000        0x8 c:/devkitpro/devkitppc/bin/../lib/gcc/powerpc-eabi/4.8.2/../../../../powerpc-eabi/lib\libc.a(lib_a-vfprintf.o)
 .rodata.blanks.4198
                0x009d64e8       0x10 c:/devkitpro/devkitppc/bin/../lib/gcc/powerpc-eabi/4.8.2/../../../../powerpc-eabi/lib\libc.a(lib_a-vfprintf.o)
 .rodata.str1.4
                0x00000000       0x42 c:/devkitpro/devkitppc/bin/../lib/gcc/powerpc-eabi/4.8.2/../../../../powerpc-eabi/lib\libc.a(lib_a-vfprintf.o)
 .rodata._ctype_
                0x009d64f8      0x101 c:/devkitpro/devkitppc/bin/../lib/gcc/powerpc-eabi/4.8.2/../../../../powerpc-eabi/lib\libc.a(lib_a-ctype_.o)
                0x009d64f8                _ctype_
 *fill*         0x009d65f9        0x3 
 .rodata.cst4   0x009d65fc       0x20 c:/devkitpro/devkitppc/bin/../lib/gcc/powerpc-eabi/4.8.2/../../../../powerpc-eabi/lib\libc.a(lib_a-dtoa.o)
 *fill*         0x009d661c        0x4 
 .rodata.cst8   0x009d6620       0x18 c:/devkitpro/devkitppc/bin/../lib/gcc/powerpc-eabi/4.8.2/../../../../powerpc-eabi/lib\libc.a(lib_a-dtoa.o)
                                 0x20 (size before relaxing)
 .rodata.str1.4
                0x009d6638       0x10 c:/devkitpro/devkitppc/bin/../lib/gcc/powerpc-eabi/4.8.2/../../../../powerpc-eabi/lib\libc.a(lib_a-dtoa.o)
                                 0x12 (size before relaxing)
 .rodata.str1.4
                0x009d6648      0x128 c:/devkitpro/devkitppc/bin/../lib/gcc/powerpc-eabi/4.8.2/../../../../powerpc-eabi/lib\libc.a(lib_a-locale.o)
                                0x12d (size before relaxing)
 .rodata.__mprec_tens
                0x009d6770       0xc8 c:/devkitpro/devkitppc/bin/../lib/gcc/powerpc-eabi/4.8.2/../../../../powerpc-eabi/lib\libc.a(lib_a-mprec.o)
                0x009d6770                __mprec_tens
 .rodata.__mprec_bigtens
                0x009d6838       0x28 c:/devkitpro/devkitppc/bin/../lib/gcc/powerpc-eabi/4.8.2/../../../../powerpc-eabi/lib\libc.a(lib_a-mprec.o)
                0x009d6838                __mprec_bigtens
 .rodata.p05.2612
                0x009d6860        0xc c:/devkitpro/devkitppc/bin/../lib/gcc/powerpc-eabi/4.8.2/../../../../powerpc-eabi/lib\libc.a(lib_a-mprec.o)

.data           0x009d6870      0x748
 *(.data*)
 .data.selection_options
                0x009d6870       0x84 menu.o
                0x009d6870                selection_options
 .data          0x009d68f4       0xa8 fs_functions.o
                0x009d68f4                FSInit
                0x009d68f8                FSShutdown
                0x009d68fc                FSAddClientEx
                0x009d6900                FSDelClient
                0x009d6904                FSInitCmdBlock
                0x009d6908                FSGetMountSource
                0x009d690c                FSMount
                0x009d6910                FSUnmount
                0x009d6914                FSGetStat
                0x009d6918                FSGetStatAsync
                0x009d691c                FSRename
                0x009d6920                FSRenameAsync
                0x009d6924                FSRemove
                0x009d6928                FSRemoveAsync
                0x009d692c                FSFlushQuota
                0x009d6930                FSFlushQuotaAsync
                0x009d6934                FSGetFreeSpaceSize
                0x009d6938                FSGetFreeSpaceSizeAsync
                0x009d693c                FSRollbackQuota
                0x009d6940                FSRollbackQuotaAsync
                0x009d6944                FSOpenDir
                0x009d6948                FSOpenDirAsync
                0x009d694c                FSReadDir
                0x009d6950                FSRewindDir
                0x009d6954                FSCloseDir
                0x009d6958                FSChangeDir
                0x009d695c                FSChangeDirAsync
                0x009d6960                FSMakeDir
                0x009d6964                FSMakeDirAsync
                0x009d6968                FSOpenFile
                0x009d696c                FSOpenFileAsync
                0x009d6970                FSReadFile
                0x009d6974                FSCloseFile
                0x009d6978                FSFlushFile
                0x009d697c                FSTruncateFile
                0x009d6980                FSGetStatFile
                0x009d6984                FSSetPosFile
                0x009d6988                FSWriteFile
                0x009d698c                FSBindMount
                0x009d6990                FSBindUnmount
                0x009d6994                FSMakeQuota
                0x009d6998                FSMakeQuotaAsync
 .data          0x009d699c       0xe8 os_functions.o
                0x009d699c                OSDynLoad_Acquire
                0x009d69a0                OSDynLoad_FindExport
                0x009d69a4                coreinit_handle
                0x009d69a8                OSFatal
                0x009d69ac                OSGetSecurityLevel
                0x009d69b0                OSForceFullRelaunch
                0x009d69b4                OSGetTitleID
                0x009d69b8                OSGetArgcArgv
                0x009d69bc                OSSetExceptionCallback
                0x009d69c0                DCFlushRange
                0x009d69c4                DCStoreRange
                0x009d69c8                DCInvalidateRange
                0x009d69cc                ICInvalidateRange
                0x009d69d0                OSEffectiveToPhysical
                0x009d69d4                __os_snprintf
                0x009d69d8                __gh_errno_ptr
                0x009d69dc                __Exit
                0x009d69e0                OSScreenInit
                0x009d69e4                OSScreenShutdown
                0x009d69e8                OSScreenGetBufferSizeEx
                0x009d69ec                OSScreenSetBufferEx
                0x009d69f0                OSScreenClearBufferEx
                0x009d69f4                OSScreenFlipBuffersEx
                0x009d69f8                OSScreenPutFontEx
                0x009d69fc                OSScreenEnableEx
                0x009d6a00                IOS_Ioctl
                0x009d6a04                IOS_Open
                0x009d6a08                IOS_Close
                0x009d6a0c                OSCreateThread
                0x009d6a10                OSResumeThread
                0x009d6a14                OSSuspendThread
                0x009d6a18                OSIsThreadTerminated
                0x009d6a1c                OSIsThreadSuspended
                0x009d6a20                OSJoinThread
                0x009d6a24                OSSetThreadPriority
                0x009d6a28                OSDetachThread
                0x009d6a2c                OSSleepTicks
                0x009d6a30                OSGetTick
                0x009d6a34                OSGetTime
                0x009d6a38                OSTicksToCalendarTime
                0x009d6a3c                OSInitMutex
                0x009d6a40                OSLockMutex
                0x009d6a44                OSUnlockMutex
                0x009d6a48                OSTryLockMutex
                0x009d6a4c                MCP_Open
                0x009d6a50                MCP_Close
                0x009d6a54                MCP_GetOwnTitleInfo
                0x009d6a58                pMEMAllocFromDefaultHeapEx
                0x009d6a5c                pMEMAllocFromDefaultHeap
                0x009d6a60                pMEMFreeToDefaultHeap
                0x009d6a64                MEMGetBaseHeapHandle
                0x009d6a68                MEMGetAllocatableSizeForFrmHeapEx
                0x009d6a6c                MEMAllocFromFrmHeapEx
                0x009d6a70                MEMFreeToFrmHeap
                0x009d6a74                MEMAllocFromExpHeapEx
                0x009d6a78                MEMCreateExpHeapEx
                0x009d6a7c                MEMDestroyExpHeap
                0x009d6a80                MEMFreeToExpHeap
 .data          0x009d6a84       0x1c sys_functions.o
                0x009d6a84                sysapp_handle
                0x009d6a88                _SYSLaunchTitleByPathFromLauncher
                0x009d6a8c                SYSRelaunchTitle
                0x009d6a90                SYSLaunchMenu
                0x009d6a94                SYSCheckTitleExists
                0x009d6a98                SYSLaunchTitle
                0x009d6a9c                SYSLaunchSettings
 .data          0x009d6aa0       0x20 vpad_functions.o
                0x009d6aa0                vpad_handle
                0x009d6aa4                vpadbase_handle
                0x009d6aa8                VPADInit
                0x009d6aac                VPADRead
                0x009d6ab0                VPADGetLcdMode
                0x009d6ab4                VPADSetLcdMode
                0x009d6ab8                VPADBASEGetMotorOnRemainingCount
                0x009d6abc                VPADBASESetMotorOnRemainingCount
 .data          0x009d6ac0       0x44 c:/devkitpro/devkitppc/bin/../lib/gcc/powerpc-eabi/4.8.2/../../../../powerpc-eabi/lib\libsysbase.a(iosupport.o)
                0x009d6ac4                devoptab_list
 *fill*         0x009d6b04        0x4 
 .data.impure_data
                0x009d6b08      0x440 c:/devkitpro/devkitppc/bin/../lib/gcc/powerpc-eabi/4.8.2/../../../../powerpc-eabi/lib\libc.a(lib_a-impure.o)
 .data.lconv    0x009d6f48       0x38 c:/devkitpro/devkitppc/bin/../lib/gcc/powerpc-eabi/4.8.2/../../../../powerpc-eabi/lib\libc.a(lib_a-locale.o)
 .data.lc_ctype_charset
                0x009d6f80       0x20 c:/devkitpro/devkitppc/bin/../lib/gcc/powerpc-eabi/4.8.2/../../../../powerpc-eabi/lib\libc.a(lib_a-locale.o)
                0x009d6fa0                __sdata_start = .
 *(.sdata*)
 .sdata         0x009d6fa0        0x8 c:/devkitpro/devkitppc/bin/../lib/gcc/powerpc-eabi/4.8.2/../../../../powerpc-eabi/lib\libc.a(lib_a-impure.o)
                0x009d6fa0                _global_impure_ptr
                0x009d6fa4                _impure_ptr
 .sdata.__wctomb
                0x009d6fa8        0x4 c:/devkitpro/devkitppc/bin/../lib/gcc/powerpc-eabi/4.8.2/../../../../powerpc-eabi/lib\libc.a(lib_a-wctomb_r.o)
                0x009d6fa8                __wctomb
 .sdata.__ctype_ptr__
                0x009d6fac        0x4 c:/devkitpro/devkitppc/bin/../lib/gcc/powerpc-eabi/4.8.2/../../../../powerpc-eabi/lib\libc.a(lib_a-ctype_.o)
                0x009d6fac                __ctype_ptr__
 .sdata.__mb_cur_max
                0x009d6fb0        0x4 c:/devkitpro/devkitppc/bin/../lib/gcc/powerpc-eabi/4.8.2/../../../../powerpc-eabi/lib\libc.a(lib_a-locale.o)
                0x009d6fb0                __mb_cur_max
 .sdata.__mbtowc
                0x009d6fb4        0x4 c:/devkitpro/devkitppc/bin/../lib/gcc/powerpc-eabi/4.8.2/../../../../powerpc-eabi/lib\libc.a(lib_a-mbtowc_r.o)
                0x009d6fb4                __mbtowc
                0x009d6fb8                __sdata_end = .
                0x009d6fb8                __sdata2_start = .
 *(.sdata2*)
                0x009d6fb8                __sdata2_end = .

.bss            0x009d6fb8     0x1030
                0x009d6fb8                __bss_start = .
 *(.bss*)
 .bss.__sfp_lock
                0x009d6fb8        0x4 c:/devkitpro/devkitppc/bin/../lib/gcc/powerpc-eabi/4.8.2/../../../../powerpc-eabi/lib\libc.a(lib_a-findfp.o)
 .bss.__sinit_lock
                0x009d6fbc        0x4 c:/devkitpro/devkitppc/bin/../lib/gcc/powerpc-eabi/4.8.2/../../../../powerpc-eabi/lib\libc.a(lib_a-findfp.o)
 .bss           0x009d6fc0       0x24 c:/devkitpro/devkitppc/bin/../lib/gcc/powerpc-eabi/4.8.2/../../../../powerpc-eabi/lib\libsysbase.a(syscall_support.o)
                0x009d6fc0                __syscalls
 .bss           0x009d6fe4     0x1004 c:/devkitpro/devkitppc/bin/../lib/gcc/powerpc-eabi/4.8.2/../../../../powerpc-eabi/lib\libsysbase.a(handle_manager.o)
 *(.sbss*)
 *(COMMON)
                0x009d7fe8                __bss_end = .
                0x009d7fe8                __CODE_END = .

/DISCARD/
 *(*)
OUTPUT(../mocha_dbg.elf elf32-powerpc)
